(dp0
S'D:\\BaiduNetdiskDownload\\image1000\\000780.jpg'
p1
(dp2
S'1'
p3
(lp4
(lp5
I1263
aI602
aI1327
aI659
aasS'2'
p6
(lp7
(lp8
I603
aI239
aI708
aI346
aassS'D:\\BaiduNetdiskDownload\\image1000\\000493.jpg'
p9
(dp10
g3
(lp11
sg6
(lp12
(lp13
I564
aI245
aI659
aI345
aassS'D:\\BaiduNetdiskDownload\\image1000\\000557.jpg'
p14
(dp15
g3
(lp16
(lp17
I859
aI391
aI905
aI443
aasg6
(lp18
ssS'D:\\BaiduNetdiskDownload\\image1000\\000660.jpg'
p19
(dp20
g3
(lp21
(lp22
I770
aI645
aI834
aI699
aasg6
(lp23
(lp24
I1287
aI214
aI1362
aI293
aassS'D:\\BaiduNetdiskDownload\\image1000\\000911.jpg'
p25
(dp26
g3
(lp27
(lp28
I896
aI291
aI933
aI339
aasg6
(lp29
(lp30
I1187
aI187
aI1292
aI288
aassS'D:\\BaiduNetdiskDownload\\image1000\\000504.jpg'
p31
(dp32
g3
(lp33
(lp34
I818
aI688
aI862
aI737
aasg6
(lp35
(lp36
I687
aI233
aI762
aI314
aassS'D:\\BaiduNetdiskDownload\\image1000\\000036.jpg'
p37
(dp38
g3
(lp39
(lp40
I1277
aI394
aI1327
aI444
aasg6
(lp41
(lp42
I1243
aI246
aI1334
aI354
aassS'D:\\BaiduNetdiskDownload\\image1000\\000817.jpg'
p43
(dp44
g3
(lp45
sg6
(lp46
(lp47
I1265
aI246
aI1358
aI355
aassS'D:\\BaiduNetdiskDownload\\image1000\\000718.jpg'
p48
(dp49
g3
(lp50
(lp51
I869
aI708
aI912
aI756
aasg6
(lp52
(lp53
I1282
aI277
aI1360
aI351
aassS'D:\\BaiduNetdiskDownload\\image1000\\000589.jpg'
p54
(dp55
g3
(lp56
(lp57
I1489
aI582
aI1527
aI627
aasg6
(lp58
(lp59
I293
aI296
aI375
aI381
aassS'D:\\BaiduNetdiskDownload\\image1000\\000895.jpg'
p60
(dp61
g3
(lp62
sg6
(lp63
(lp64
I866
aI297
aI962
aI394
aassS'D:\\BaiduNetdiskDownload\\image1000\\000017.jpg'
p65
(dp66
g3
(lp67
(lp68
I1476
aI538
aI1520
aI589
aasg6
(lp69
(lp70
I1260
aI277
aI1350
aI362
aassS'D:\\BaiduNetdiskDownload\\image1000\\000153.jpg'
p71
(dp72
g3
(lp73
(lp74
I1398
aI230
aI1493
aI316
aasg6
(lp75
(lp76
I980
aI107
aI1126
aI240
aassS'D:\\BaiduNetdiskDownload\\image1000\\000925.jpg'
p77
(dp78
g3
(lp79
(lp80
I924
aI559
aI1011
aI639
aasg6
(lp81
ssS'D:\\BaiduNetdiskDownload\\image1000\\000247.jpg'
p82
(dp83
g3
(lp84
(lp85
I971
aI279
aI1011
aI317
aasg6
(lp86
(lp87
I662
aI173
aI731
aI246
aassS'D:\\BaiduNetdiskDownload\\image1000\\000877.jpg'
p88
(dp89
g3
(lp90
(lp91
I1084
aI398
aI1142
aI457
aasg6
(lp92
(lp93
I1177
aI219
aI1280
aI322
aassS'D:\\BaiduNetdiskDownload\\image1000\\000306.jpg'
p94
(dp95
g3
(lp96
sg6
(lp97
(lp98
I1189
aI144
aI1267
aI239
aassS'D:\\BaiduNetdiskDownload\\image1000\\000770.jpg'
p99
(dp100
g3
(lp101
(lp102
I658
aI846
aI1035
aI1064
aasg6
(lp103
ssS'D:\\BaiduNetdiskDownload\\image1000\\000655.jpg'
p104
(dp105
g3
(lp106
(lp107
I1595
aI590
aI1668
aI675
aasg6
(lp108
(lp109
I891
aI58
aI1009
aI184
aassS'D:\\BaiduNetdiskDownload\\image1000\\000755.jpg'
p110
(dp111
g3
(lp112
(lp113
I1194
aI254
aI1278
aI332
aasg6
(lp114
(lp115
I575
aI190
aI692
aI322
aassS'D:\\BaiduNetdiskDownload\\image1000\\000476.jpg'
p116
(dp117
g3
(lp118
sg6
(lp119
(lp120
I686
aI220
aI765
aI314
aassS'D:\\BaiduNetdiskDownload\\image1000\\000652.jpg'
p121
(dp122
g3
(lp123
sg6
(lp124
(lp125
I901
aI170
aI1014
aI282
aassS'D:\\BaiduNetdiskDownload\\image1000\\000057.jpg'
p126
(dp127
g3
(lp128
(lp129
I1530
aI552
aI1573
aI604
aasg6
(lp130
(lp131
I535
aI173
aI623
aI276
aassS'D:\\BaiduNetdiskDownload\\image1000\\000502.jpg'
p132
(dp133
g3
(lp134
(lp135
I679
aI504
aI730
aI558
aasg6
(lp136
(lp137
I566
aI236
aI661
aI354
aassS'D:\\BaiduNetdiskDownload\\image1000\\000273.jpg'
p138
(dp139
g3
(lp140
(lp141
I1391
aI705
aI1427
aI750
aasg6
(lp142
(lp143
I603
aI257
aI672
aI340
aassS'D:\\BaiduNetdiskDownload\\image1000\\000966.jpg'
p144
(dp145
g3
(lp146
sg6
(lp147
(lp148
I1274
aI217
aI1377
aI320
aassS'D:\\BaiduNetdiskDownload\\image1000\\000576.jpg'
p149
(dp150
g3
(lp151
(lp152
I821
aI197
aI886
aI271
aasg6
(lp153
ssS'D:\\BaiduNetdiskDownload\\image1000\\000160.jpg'
p154
(dp155
g3
(lp156
(lp157
I1613
aI405
aI1662
aI455
aasg6
(lp158
(lp159
I99
aI274
aI189
aI372
aassS'D:\\BaiduNetdiskDownload\\image1000\\000804.jpg'
p160
(dp161
g3
(lp162
sg6
(lp163
(lp164
I457
aI250
aI554
aI332
aassS'D:\\BaiduNetdiskDownload\\image1000\\000074.jpg'
p165
(dp166
g3
(lp167
(lp168
I250
aI380
aI303
aI426
aasg6
(lp169
(lp170
I1393
aI227
aI1465
aI316
aassS'D:\\BaiduNetdiskDownload\\image1000\\000903.jpg'
p171
(dp172
g3
(lp173
sg6
(lp174
(lp175
I1465
aI150
aI1550
aI237
aassS'D:\\BaiduNetdiskDownload\\image1000\\000582.jpg'
p176
(dp177
g3
(lp178
(lp179
I610
aI860
aI668
aI917
aasg6
(lp180
(lp181
I1709
aI113
aI1815
aI233
aassS'D:\\BaiduNetdiskDownload\\image1000\\000181.jpg'
p182
(dp183
g3
(lp184
(lp185
I1412
aI363
aI1447
aI405
aasg6
(lp186
(lp187
I493
aI266
aI578
aI348
aassS'D:\\BaiduNetdiskDownload\\image1000\\000886.jpg'
p188
(dp189
g3
(lp190
(lp191
I1626
aI346
aI1669
aI385
aasg6
(lp192
(lp193
I243
aI184
aI118
aI273
aassS'D:\\BaiduNetdiskDownload\\image1000\\000941.jpg'
p194
(dp195
g3
(lp196
sg6
(lp197
(lp198
I1275
aI199
aI1381
aI309
aassS'D:\\BaiduNetdiskDownload\\image1000\\000872.jpg'
p199
(dp200
g3
(lp201
(lp202
I648
aI472
aI746
aI559
aasg6
(lp203
ssS'D:\\BaiduNetdiskDownload\\image1000\\000521.jpg'
p204
(dp205
g3
(lp206
(lp207
I1538
aI576
aI1588
aI628
aasg6
(lp208
(lp209
I641
aI262
aI734
aI349
aassS'D:\\BaiduNetdiskDownload\\image1000\\000347.jpg'
p210
(dp211
g3
(lp212
(lp213
I98
aI521
aI143
aI563
aasg6
(lp214
ssS'D:\\BaiduNetdiskDownload\\image1000\\000172.jpg'
p215
(dp216
g3
(lp217
sg6
(lp218
(lp219
I967
aI296
aI1059
aI400
aassS'D:\\BaiduNetdiskDownload\\image1000\\000674.jpg'
p220
(dp221
g3
(lp222
(lp223
I284
aI593
aI327
aI636
aasg6
(lp224
(lp225
I1333
aI182
aI1419
aI276
aassS'D:\\BaiduNetdiskDownload\\image1000\\000467.jpg'
p226
(dp227
g3
(lp228
(lp229
I1502
aI679
aI1555
aI734
aasg6
(lp230
(lp231
I569
aI167
aI649
aI257
aassS'D:\\BaiduNetdiskDownload\\image1000\\000726.jpg'
p232
(dp233
g3
(lp234
sg6
(lp235
(lp236
I755
aI288
aI1122
aI596
aassS'D:\\BaiduNetdiskDownload\\image1000\\000499.jpg'
p237
(dp238
g3
(lp239
(lp240
I679
aI501
aI727
aI552
aasg6
(lp241
(lp242
I571
aI248
aI670
aI357
aassS'D:\\BaiduNetdiskDownload\\image1000\\000043.jpg'
p243
(dp244
g3
(lp245
(lp246
I1496
aI446
aI1543
aI500
aasg6
(lp247
(lp248
I1337
aI250
aI1430
aI365
aassS'D:\\BaiduNetdiskDownload\\image1000\\000690.jpg'
p249
(dp250
g3
(lp251
(lp252
I1536
aI503
aI1579
aI547
aasg6
(lp253
(lp254
I92
aI263
aI178
aI343
aassS'D:\\BaiduNetdiskDownload\\image1000\\000079.jpg'
p255
(dp256
g3
(lp257
(lp258
I1302
aI418
aI1347
aI455
aasg6
(lp259
ssS'D:\\BaiduNetdiskDownload\\image1000\\000190.jpg'
p260
(dp261
g3
(lp262
(lp263
I1509
aI520
aI1544
aI558
aasg6
(lp264
(lp265
I535
aI260
aI613
aI345
aassS'D:\\BaiduNetdiskDownload\\image1000\\000377.jpg'
p266
(dp267
g3
(lp268
(lp269
I1139
aI222
aI1071
aI285
aasg6
(lp270
ssS'D:\\BaiduNetdiskDownload\\image1000\\000245.jpg'
p271
(dp272
g3
(lp273
(lp274
I914
aI509
aI956
aI546
aasg6
(lp275
(lp276
I1171
aI273
aI1232
aI334
aassS'D:\\BaiduNetdiskDownload\\image1000\\000961.jpg'
p277
(dp278
g3
(lp279
sg6
(lp280
(lp281
I1119
aI107
aI1258
aI227
aassS'D:\\BaiduNetdiskDownload\\image1000\\000426.jpg'
p282
(dp283
g3
(lp284
(lp285
I1395
aI385
aI1430
aI414
aasg6
(lp286
ssS'D:\\BaiduNetdiskDownload\\image1000\\000702.jpg'
p287
(dp288
g3
(lp289
(lp290
I1143
aI596
aI1201
aI650
aasg6
(lp291
(lp292
I1157
aI145
aI1244
aI240
aassS'D:\\BaiduNetdiskDownload\\image1000\\000620.jpg'
p293
(dp294
g3
(lp295
(lp296
I644
aI705
aI693
aI763
aasg6
(lp297
(lp298
I1263
aI214
aI1341
aI300
aassS'D:\\BaiduNetdiskDownload\\image1000\\000463.jpg'
p299
(dp300
g3
(lp301
(lp302
I1555
aI645
aI1607
aI696
aasg6
(lp303
(lp304
I510
aI171
aI576
aI253
aassS'D:\\BaiduNetdiskDownload\\image1000\\000929.jpg'
p305
(dp306
g3
(lp307
(lp308
I1225
aI535
aI1332
aI642
aasg6
(lp309
(lp310
I1071
aI299
aI1246
aI478
aassS'D:\\BaiduNetdiskDownload\\image1000\\000062.jpg'
p311
(dp312
g3
(lp313
(lp314
I305
aI530
aI360
aI586
aasg6
(lp315
(lp316
I465
aI266
aI545
aI358
aassS'D:\\BaiduNetdiskDownload\\image1000\\000838.jpg'
p317
(dp318
g3
(lp319
sg6
(lp320
(lp321
I1575
aI228
aI1659
aI319
aassS'D:\\BaiduNetdiskDownload\\image1000\\000538.jpg'
p322
(dp323
g3
(lp324
(lp325
I1460
aI524
aI1512
aI575
aasg6
(lp326
(lp327
I430
aI122
aI509
aI213
aassS'D:\\BaiduNetdiskDownload\\image1000\\000570.jpg'
p328
(dp329
g3
(lp330
(lp331
I946
aI681
aI995
aI737
aasg6
(lp332
(lp333
I1597
aI135
aI1675
aI227
aassS'D:\\BaiduNetdiskDownload\\image1000\\000856.jpg'
p334
(dp335
g3
(lp336
(lp337
I493
aI748
aI562
aI817
aasg6
(lp338
(lp339
I825
aI259
aI939
aI365
aassS'D:\\BaiduNetdiskDownload\\image1000\\000561.jpg'
p340
(dp341
g3
(lp342
(lp343
I202
aI601
aI244
aI641
aasg6
(lp344
(lp345
I1396
aI257
aI1467
aI334
aassS'D:\\BaiduNetdiskDownload\\image1000\\000050.jpg'
p346
(dp347
g3
(lp348
(lp349
I1429
aI555
aI1478
aI601
aasg6
(lp350
ssS'D:\\BaiduNetdiskDownload\\image1000\\000813.jpg'
p351
(dp352
g3
(lp353
sg6
(lp354
(lp355
I497
aI245
aI583
aI323
aassS'D:\\BaiduNetdiskDownload\\image1000\\000315.jpg'
p356
(dp357
g3
(lp358
(lp359
I1109
aI331
aI1188
aI409
aasg6
(lp360
(lp361
I1007
aI250
aI1170
aI342
aassS'D:\\BaiduNetdiskDownload\\image1000\\000132.jpg'
p362
(dp363
g3
(lp364
(lp365
I945
aI118
aI997
aI167
aasg6
(lp366
(lp367
I770
aI455
aI866
aI576
aassS'D:\\BaiduNetdiskDownload\\image1000\\000072.jpg'
p368
(dp369
g3
(lp370
(lp371
I360
aI533
aI409
aI592
aasg6
(lp372
ssS'D:\\BaiduNetdiskDownload\\image1000\\000880.jpg'
p373
(dp374
g3
(lp375
(lp376
I1033
aI228
aI1084
aI280
aasg6
(lp377
(lp378
I993
aI190
aI1098
aI305
aassS'D:\\BaiduNetdiskDownload\\image1000\\000891.jpg'
p379
(dp380
g3
(lp381
(lp382
I1424
aI520
aI1474
aI563
aasg6
(lp383
(lp384
I578
aI127
aI647
aI200
aassS'D:\\BaiduNetdiskDownload\\image1000\\000794.jpg'
p385
(dp386
g3
(lp387
sg6
(lp388
(lp389
I1393
aI200
aI1482
aI299
aassS'D:\\BaiduNetdiskDownload\\image1000\\000514.jpg'
p390
(dp391
g3
(lp392
(lp393
I593
aI401
aI652
aI461
aasg6
(lp394
ssS'D:\\BaiduNetdiskDownload\\image1000\\000322.jpg'
p395
(dp396
g3
(lp397
sg6
(lp398
(lp399
I1159
aI263
aI1267
aI389
aassS'D:\\BaiduNetdiskDownload\\image1000\\000237.jpg'
p400
(dp401
g3
(lp402
(lp403
I1091
aI300
aI1137
aI346
aasg6
(lp404
(lp405
I891
aI234
aI970
aI342
aassS'D:\\BaiduNetdiskDownload\\image1000\\000644.jpg'
p406
(dp407
g3
(lp408
(lp409
I1142
aI363
aI1233
aI454
aasg6
(lp410
ssS'D:\\BaiduNetdiskDownload\\image1000\\000417.jpg'
p411
(dp412
g3
(lp413
(lp414
I1116
aI309
aI1161
aI363
aasg6
(lp415
(lp416
I587
aI283
aI675
aI378
aassS'D:\\BaiduNetdiskDownload\\image1000\\000979.jpg'
p417
(dp418
g3
(lp419
(lp420
I528
aI796
aI670
aI926
aasg6
(lp421
ssS'D:\\BaiduNetdiskDownload\\image1000\\000673.jpg'
p422
(dp423
g3
(lp424
(lp425
I385
aI337
aI441
aI397
aasg6
(lp426
(lp427
I1490
aI153
aI1600
aI280
aassS'D:\\BaiduNetdiskDownload\\image1000\\000495.jpg'
p428
(dp429
g3
(lp430
(lp431
I602
aI564
aI661
aI627
aasg6
(lp432
(lp433
I557
aI248
aI670
aI365
aassS'D:\\BaiduNetdiskDownload\\image1000\\000696.jpg'
p434
(dp435
g3
(lp436
(lp437
I1445
aI447
aI1492
aI490
aasg6
(lp438
(lp439
I668
aI270
aI745
aI343
aassS'D:\\BaiduNetdiskDownload\\image1000\\000959.jpg'
p440
(dp441
g3
(lp442
(lp443
I976
aI239
aI1042
aI302
aasg6
(lp444
(lp445
I1108
aI233
aI1249
aI355
aassS'D:\\BaiduNetdiskDownload\\image1000\\000334.jpg'
p446
(dp447
g3
(lp448
sg6
(lp449
(lp450
I413
aI190
aI499
aI303
aassS'D:\\BaiduNetdiskDownload\\image1000\\000854.jpg'
p451
(dp452
g3
(lp453
(lp454
I640
aI671
aI697
aI728
aasg6
(lp455
(lp456
I693
aI263
aI804
aI352
aassS'D:\\BaiduNetdiskDownload\\image1000\\000368.jpg'
p457
(dp458
g3
(lp459
(lp460
I1645
aI469
aI1686
aI513
aasg6
(lp461
(lp462
I232
aI283
aI350
aI380
aassS'D:\\BaiduNetdiskDownload\\image1000\\000088.jpg'
p463
(dp464
g3
(lp465
(lp466
I1182
aI466
aI1230
aI512
aasg6
(lp467
ssS'D:\\BaiduNetdiskDownload\\image1000\\000490.jpg'
p468
(dp469
g3
(lp470
(lp471
I1139
aI518
aI1197
aI579
aasg6
(lp472
(lp473
I960
aI268
aI1064
aI408
aassS'D:\\BaiduNetdiskDownload\\image1000\\000543.jpg'
p474
(dp475
g3
(lp476
(lp477
I686
aI563
aI745
aI619
aasg6
(lp478
(lp479
I451
aI102
aI534
aI191
aassS'D:\\BaiduNetdiskDownload\\image1000\\000831.jpg'
p480
(dp481
g3
(lp482
sg6
(lp483
(lp484
I566
aI251
aI670
aI351
aassS'D:\\BaiduNetdiskDownload\\image1000\\000207.jpg'
p485
(dp486
g3
(lp487
(lp488
I606
aI177
aI635
aI217
aasg6
(lp489
(lp490
I578
aI246
aI647
aI332
aassS'D:\\BaiduNetdiskDownload\\image1000\\000842.jpg'
p491
(dp492
g3
(lp493
(lp494
I1240
aI710
aI1309
aI763
aasg6
(lp495
(lp496
I1159
aI254
aI1249
aI343
aassS'D:\\BaiduNetdiskDownload\\image1000\\000443.jpg'
p497
(dp498
g3
(lp499
sg6
(lp500
(lp501
I796
aI263
aI881
aI354
aassS'D:\\BaiduNetdiskDownload\\image1000\\000096.jpg'
p502
(dp503
g3
(lp504
(lp505
I1370
aI268
aI1409
aI325
aasg6
(lp506
ssS'D:\\BaiduNetdiskDownload\\image1000\\000479.jpg'
p507
(dp508
g3
(lp509
sg6
(lp510
(lp511
I685
aI227
aI770
aI312
aassS'D:\\BaiduNetdiskDownload\\image1000\\000089.jpg'
p512
(dp513
g3
(lp514
(lp515
I1156
aI467
aI1205
aI510
aasg6
(lp516
(lp517
I1163
aI165
aI1242
aI254
aassS'D:\\BaiduNetdiskDownload\\image1000\\000309.jpg'
p518
(dp519
g3
(lp520
(lp521
I822
aI385
aI874
aI437
aasg6
(lp522
(lp523
I737
aI314
aI822
aI408
aassS'D:\\BaiduNetdiskDownload\\image1000\\000795.jpg'
p524
(dp525
g3
(lp526
(lp527
I46
aI563
aI99
aI619
aasg6
(lp528
(lp529
I1329
aI207
aI1422
aI293
aassS'D:\\BaiduNetdiskDownload\\image1000\\000819.jpg'
p530
(dp531
g3
(lp532
sg6
(lp533
(lp534
I1292
aI191
aI1410
aI320
aassS'D:\\BaiduNetdiskDownload\\image1000\\000898.jpg'
p535
(dp536
g3
(lp537
(lp538
I689
aI493
aI737
aI546
aasg6
(lp539
ssS'D:\\BaiduNetdiskDownload\\image1000\\000080.jpg'
p540
(dp541
g3
(lp542
(lp543
I1177
aI452
aI1215
aI495
aasg6
(lp544
(lp545
I1164
aI162
aI1239
aI250
aassS'D:\\BaiduNetdiskDownload\\image1000\\000027.jpg'
p546
(dp547
g3
(lp548
(lp549
I1415
aI435
aI1471
aI490
aasg6
(lp550
ssS'D:\\BaiduNetdiskDownload\\image1000\\000586.jpg'
p551
(dp552
g3
(lp553
(lp554
I1493
aI572
aI1540
aI615
aasg6
(lp555
ssS'D:\\BaiduNetdiskDownload\\image1000\\000597.jpg'
p556
(dp557
g3
(lp558
(lp559
I587
aI437
aI658
aI501
aasg6
(lp560
(lp561
I1514
aI111
aI1654
aI219
aassS'D:\\BaiduNetdiskDownload\\image1000\\000002.jpg'
p562
(dp563
g3
(lp564
(lp565
I616
aI306
aI669
aI360
aasg6
(lp566
(lp567
I465
aI242
aI547
aI328
aassS'D:\\BaiduNetdiskDownload\\image1000\\000572.jpg'
p568
(dp569
g3
(lp570
sg6
(lp571
(lp572
I1282
aI291
aI1368
aI397
aassS'D:\\BaiduNetdiskDownload\\image1000\\000554.jpg'
p573
(dp574
g3
(lp575
(lp576
I424
aI469
aI472
aI510
aasg6
(lp577
ssS'D:\\BaiduNetdiskDownload\\image1000\\000949.jpg'
p578
(dp579
g3
(lp580
(lp581
I907
aI409
aI956
aI464
aasg6
(lp582
(lp583
I1140
aI193
aI1239
aI305
aassS'D:\\BaiduNetdiskDownload\\image1000\\000788.jpg'
p584
(dp585
g3
(lp586
(lp587
I458
aI475
aI514
aI524
aasg6
(lp588
ssS'D:\\BaiduNetdiskDownload\\image1000\\000174.jpg'
p589
(dp590
g3
(lp591
sg6
(lp592
(lp593
I188
aI262
aI289
aI369
aassS'D:\\BaiduNetdiskDownload\\image1000\\000226.jpg'
p594
(dp595
g3
(lp596
(lp597
I496
aI518
aI541
aI567
aasg6
(lp598
ssS'D:\\BaiduNetdiskDownload\\image1000\\000380.jpg'
p599
(dp600
g3
(lp601
(lp602
I1222
aI662
aI1265
aI716
aasg6
(lp603
(lp604
I665
aI162
aI735
aI239
aassS'D:\\BaiduNetdiskDownload\\image1000\\000539.jpg'
p605
(dp606
g3
(lp607
(lp608
I240
aI553
aI364
aI684
aasg6
(lp609
ssS'D:\\BaiduNetdiskDownload\\image1000\\000779.jpg'
p610
(dp611
g3
(lp612
(lp613
I1247
aI556
aI1312
aI618
aasg6
(lp614
(lp615
I606
aI243
aI710
aI342
aassS'D:\\BaiduNetdiskDownload\\image1000\\000327.jpg'
p616
(dp617
g3
(lp618
(lp619
I1014
aI670
aI1061
aI722
aasg6
(lp620
(lp621
I858
aI319
aI952
aI417
aassS'D:\\BaiduNetdiskDownload\\image1000\\000861.jpg'
p622
(dp623
g3
(lp624
(lp625
I534
aI414
aI582
aI469
aasg6
(lp626
ssS'D:\\BaiduNetdiskDownload\\image1000\\000453.jpg'
p627
(dp628
g3
(lp629
(lp630
I1209
aI368
aI1264
aI411
aasg6
(lp631
(lp632
I469
aI213
aI558
aI303
aassS'D:\\BaiduNetdiskDownload\\image1000\\000536.jpg'
p633
(dp634
g3
(lp635
(lp636
I926
aI474
aI983
aI538
aasg6
(lp637
(lp638
I997
aI121
aI1114
aI248
aassS'D:\\BaiduNetdiskDownload\\image1000\\000558.jpg'
p639
(dp640
g3
(lp641
(lp642
I206
aI547
aI247
aI589
aasg6
(lp643
(lp644
I1403
aI260
aI1469
aI334
aassS'D:\\BaiduNetdiskDownload\\image1000\\000844.jpg'
p645
(dp646
g3
(lp647
sg6
(lp648
(lp649
I1406
aI230
aI1486
aI303
aassS'D:\\BaiduNetdiskDownload\\image1000\\000166.jpg'
p650
(dp651
g3
(lp652
(lp653
I1322
aI615
aI1368
aI670
aasg6
(lp654
ssS'D:\\BaiduNetdiskDownload\\image1000\\000094.jpg'
p655
(dp656
g3
(lp657
sg6
(lp658
(lp659
I1161
aI162
aI1254
aI254
aassS'D:\\BaiduNetdiskDownload\\image1000\\000699.jpg'
p660
(dp661
g3
(lp662
(lp663
I647
aI691
aI703
aI748
aasg6
(lp664
(lp665
I1263
aI220
aI1351
aI302
aassS'D:\\BaiduNetdiskDownload\\image1000\\000337.jpg'
p666
(dp667
g3
(lp668
sg6
(lp669
(lp670
I1185
aI339
aI1272
aI431
aassS'D:\\BaiduNetdiskDownload\\image1000\\000020.jpg'
p671
(dp672
g3
(lp673
(lp674
I1076
aI185
aI1133
aI246
aasg6
(lp675
(lp676
I1054
aI268
aI1139
aI369
aassS'D:\\BaiduNetdiskDownload\\image1000\\000745.jpg'
p677
(dp678
g3
(lp679
sg6
(lp680
(lp681
I1692
aI276
aI1762
aI354
aassS'D:\\BaiduNetdiskDownload\\image1000\\000909.jpg'
p682
(dp683
g3
(lp684
sg6
(lp685
(lp686
I1195
aI188
aI1294
aI291
aassS'D:\\BaiduNetdiskDownload\\image1000\\000354.jpg'
p687
(dp688
g3
(lp689
sg6
(lp690
(lp691
I457
aI153
aI528
aI231
aassS'D:\\BaiduNetdiskDownload\\image1000\\000465.jpg'
p692
(dp693
g3
(lp694
(lp695
I382
aI561
aI431
aI613
aasg6
(lp696
ssS'D:\\BaiduNetdiskDownload\\image1000\\000299.jpg'
p697
(dp698
g3
(lp699
(lp700
I782
aI291
aI836
aI351
aasg6
(lp701
(lp702
I734
aI300
aI800
aI380
aassS'D:\\BaiduNetdiskDownload\\image1000\\000042.jpg'
p703
(dp704
g3
(lp705
(lp706
I1388
aI520
aI1443
aI564
aasg6
(lp707
ssS'D:\\BaiduNetdiskDownload\\image1000\\000068.jpg'
p708
(dp709
g3
(lp710
(lp711
I353
aI555
aI405
aI602
aasg6
(lp712
ssS'D:\\BaiduNetdiskDownload\\image1000\\000144.jpg'
p713
(dp714
g3
(lp715
(lp716
I1460
aI383
aI1502
aI437
aasg6
(lp717
(lp718
I502
aI101
aI604
aI204
aassS'D:\\BaiduNetdiskDownload\\image1000\\000859.jpg'
p719
(dp720
g3
(lp721
sg6
(lp722
(lp723
I877
aI191
aI977
aI285
aassS'D:\\BaiduNetdiskDownload\\image1000\\000458.jpg'
p724
(dp725
g3
(lp726
(lp727
I592
aI586
aI641
aI642
aasg6
(lp728
ssS'D:\\BaiduNetdiskDownload\\image1000\\000552.jpg'
p729
(dp730
g3
(lp731
(lp732
I219
aI704
aI263
aI747
aasg6
(lp733
(lp734
I1399
aI262
aI1460
aI334
aassS'D:\\BaiduNetdiskDownload\\image1000\\000428.jpg'
p735
(dp736
g3
(lp737
(lp738
I1164
aI446
aI1205
aI486
aasg6
(lp739
(lp740
I900
aI231
aI978
aI317
aassS'D:\\BaiduNetdiskDownload\\image1000\\000758.jpg'
p741
(dp742
g3
(lp743
sg6
(lp744
(lp745
I1204
aI273
aI1285
aI346
aassS'D:\\BaiduNetdiskDownload\\image1000\\000395.jpg'
p746
(dp747
g3
(lp748
(lp749
I1146
aI558
aI1192
aI599
aasg6
(lp750
(lp751
I762
aI75
aI865
aI194
aassS'D:\\BaiduNetdiskDownload\\image1000\\000958.jpg'
p752
(dp753
g3
(lp754
(lp755
I970
aI173
aI1022
aI227
aasg6
(lp756
(lp757
I1140
aI217
aI1267
aI317
aassS'D:\\BaiduNetdiskDownload\\image1000\\000044.jpg'
p758
(dp759
g3
(lp760
(lp761
I1303
aI650
aI1354
aI704
aasg6
(lp762
(lp763
I209
aI65
aI295
aI168
aassS'D:\\BaiduNetdiskDownload\\image1000\\000359.jpg'
p764
(dp765
g3
(lp766
(lp767
I1513
aI464
aI1559
aI512
aasg6
(lp768
ssS'D:\\BaiduNetdiskDownload\\image1000\\000231.jpg'
p769
(dp770
g3
(lp771
(lp772
I1444
aI302
aI1482
aI342
aasg6
(lp773
(lp774
I617
aI187
aI693
aI265
aassS'D:\\BaiduNetdiskDownload\\image1000\\000784.jpg'
p775
(dp776
g3
(lp777
(lp778
I616
aI434
aI699
aI506
aasg6
(lp779
(lp780
I587
aI234
aI710
aI326
aassS'D:\\BaiduNetdiskDownload\\image1000\\000713.jpg'
p781
(dp782
g3
(lp783
(lp784
I955
aI265
aI1012
aI319
aasg6
(lp785
(lp786
I1288
aI208
aI1393
aI312
aassS'D:\\BaiduNetdiskDownload\\image1000\\000667.jpg'
p787
(dp788
g3
(lp789
(lp790
I1142
aI653
aI1192
aI701
aasg6
(lp791
(lp792
I388
aI265
aI462
aI334
aassS'D:\\BaiduNetdiskDownload\\image1000\\000615.jpg'
p793
(dp794
g3
(lp795
(lp796
I229
aI513
aI288
aI582
aasg6
(lp797
(lp798
I624
aI145
aI706
aI245
aassS'D:\\BaiduNetdiskDownload\\image1000\\000698.jpg'
p799
(dp800
g3
(lp801
(lp802
I838
aI237
aI876
aI288
aa(lp803
I832
aI233
aI896
aI305
aasg6
(lp804
(lp805
I1469
aI151
aI1581
aI259
aassS'D:\\BaiduNetdiskDownload\\image1000\\000427.jpg'
p806
(dp807
g3
(lp808
sg6
(lp809
(lp810
I351
aI98
aI440
aI194
aassS'D:\\BaiduNetdiskDownload\\image1000\\000526.jpg'
p811
(dp812
g3
(lp813
(lp814
I666
aI257
aI728
aI317
aasg6
(lp815
(lp816
I578
aI242
aI666
aI340
aassS'D:\\BaiduNetdiskDownload\\image1000\\000703.jpg'
p817
(dp818
g3
(lp819
sg6
(lp820
(lp821
I1395
aI217
aI1530
aI351
aassS'D:\\BaiduNetdiskDownload\\image1000\\000777.jpg'
p822
(dp823
g3
(lp824
sg6
(lp825
(lp826
I746
aI251
aI1198
aI648
aassS'D:\\BaiduNetdiskDownload\\image1000\\000056.jpg'
p827
(dp828
g3
(lp829
(lp830
I468
aI512
aI530
aI581
aasg6
(lp831
(lp832
I499
aI202
aI624
aI325
aassS'D:\\BaiduNetdiskDownload\\image1000\\000185.jpg'
p833
(dp834
g3
(lp835
(lp836
I1429
aI475
aI1472
aI515
aasg6
(lp837
ssS'D:\\BaiduNetdiskDownload\\image1000\\000571.jpg'
p838
(dp839
g3
(lp840
(lp841
I486
aI806
aI557
aI869
aasg6
(lp842
(lp843
I1728
aI153
aI1824
aI259
aassS'D:\\BaiduNetdiskDownload\\image1000\\000269.jpg'
p844
(dp845
g3
(lp846
(lp847
I274
aI296
aI317
aI337
aasg6
(lp848
(lp849
I1400
aI142
aI1481
aI251
aassS'D:\\BaiduNetdiskDownload\\image1000\\000191.jpg'
p850
(dp851
g3
(lp852
(lp853
I1541
aI497
aI1576
aI533
aasg6
(lp854
(lp855
I611
aI276
aI697
aI355
aassS'D:\\BaiduNetdiskDownload\\image1000\\000116.jpg'
p856
(dp857
g3
(lp858
sg6
(lp859
(lp860
I1191
aI288
aI1295
aI383
aassS'D:\\BaiduNetdiskDownload\\image1000\\000988.jpg'
p861
(dp862
g3
(lp863
(lp864
I173
aI518
aI220
aI558
aasg6
(lp865
ssS'D:\\BaiduNetdiskDownload\\image1000\\000631.jpg'
p866
(dp867
g3
(lp868
(lp869
I353
aI312
aI400
aI360
aasg6
(lp870
(lp871
I1627
aI187
aI1738
aI285
aassS'D:\\BaiduNetdiskDownload\\image1000\\000735.jpg'
p872
(dp873
g3
(lp874
(lp875
I1540
aI306
aI1588
aI357
aasg6
(lp876
(lp877
I142
aI173
aI240
aI273
aassS'D:\\BaiduNetdiskDownload\\image1000\\000111.jpg'
p878
(dp879
g3
(lp880
(lp881
I1596
aI437
aI1631
aI484
aasg6
(lp882
(lp883
I403
aI148
aI506
aI251
aassS'D:\\BaiduNetdiskDownload\\image1000\\000625.jpg'
p884
(dp885
g3
(lp886
(lp887
I540
aI584
aI597
aI641
aasg6
(lp888
(lp889
I815
aI299
aI897
aI372
aassS'D:\\BaiduNetdiskDownload\\image1000\\000421.jpg'
p890
(dp891
g3
(lp892
sg6
(lp893
(lp894
I565
aI268
aI652
aI369
aassS'D:\\BaiduNetdiskDownload\\image1000\\000481.jpg'
p895
(dp896
g3
(lp897
sg6
(lp898
(lp899
I1178
aI243
aI1261
aI340
aassS'D:\\BaiduNetdiskDownload\\image1000\\000820.jpg'
p900
(dp901
g3
(lp902
sg6
(lp903
(lp904
I1260
aI217
aI1362
aI305
aassS'D:\\BaiduNetdiskDownload\\image1000\\000378.jpg'
p905
(dp906
g3
(lp907
(lp908
I1115
aI630
aI1174
aI694
aasg6
(lp909
ssS'D:\\BaiduNetdiskDownload\\image1000\\000848.jpg'
p910
(dp911
g3
(lp912
sg6
(lp913
(lp914
I1305
aI254
aI1403
aI358
aassS'D:\\BaiduNetdiskDownload\\image1000\\000048.jpg'
p915
(dp916
g3
(lp917
(lp918
I1274
aI454
aI1316
aI492
aasg6
(lp919
(lp920
I1482
aI234
aI1576
aI346
aassS'D:\\BaiduNetdiskDownload\\image1000\\000816.jpg'
p921
(dp922
g3
(lp923
(lp924
I973
aI490
aI1024
aI547
aasg6
(lp925
ssS'D:\\BaiduNetdiskDownload\\image1000\\000767.jpg'
p926
(dp927
g3
(lp928
(lp929
I1347
aI621
aI1395
aI670
aasg6
(lp930
(lp931
I270
aI234
aI367
aI328
aassS'D:\\BaiduNetdiskDownload\\image1000\\000331.jpg'
p932
(dp933
g3
(lp934
(lp935
I1298
aI779
aI1353
aI828
aasg6
(lp936
(lp937
I533
aI119
aI599
aI191
aassS'D:\\BaiduNetdiskDownload\\image1000\\000220.jpg'
p938
(dp939
g3
(lp940
(lp941
I1374
aI516
aI1408
aI556
aasg6
(lp942
(lp943
I481
aI197
aI545
aI271
aassS'D:\\BaiduNetdiskDownload\\image1000\\000896.jpg'
p944
(dp945
g3
(lp946
(lp947
I1004
aI234
aI1061
aI289
aasg6
(lp948
(lp949
I849
aI256
aI957
aI378
aassS'D:\\BaiduNetdiskDownload\\image1000\\000037.jpg'
p950
(dp951
g3
(lp952
(lp953
I1043
aI569
aI1108
aI619
aasg6
(lp954
ssS'D:\\BaiduNetdiskDownload\\image1000\\000133.jpg'
p955
(dp956
g3
(lp957
(lp958
I1084
aI589
aI1139
aI644
aasg6
(lp959
ssS'D:\\BaiduNetdiskDownload\\image1000\\000975.jpg'
p960
(dp961
g3
(lp962
sg6
(lp963
(lp964
I1362
aI141
aI1455
aI243
aassS'D:\\BaiduNetdiskDownload\\image1000\\000312.jpg'
p965
(dp966
g3
(lp967
(lp968
I1019
aI138
aI1071
aI200
aasg6
(lp969
(lp970
I1091
aI257
aI1206
aI400
aassS'D:\\BaiduNetdiskDownload\\image1000\\000984.jpg'
p971
(dp972
g3
(lp973
(lp974
I1104
aI319
aI1181
aI389
aasg6
(lp975
(lp976
I1185
aI119
aI1344
aI263
aassS'D:\\BaiduNetdiskDownload\\image1000\\000580.jpg'
p977
(dp978
g3
(lp979
(lp980
I517
aI852
aI575
aI908
aasg6
(lp981
(lp982
I1754
aI122
aI1848
aI230
aassS'D:\\BaiduNetdiskDownload\\image1000\\000209.jpg'
p983
(dp984
g3
(lp985
sg6
(lp986
(lp987
I1339
aI202
aI1409
aI289
aassS'D:\\BaiduNetdiskDownload\\image1000\\000486.jpg'
p988
(dp989
g3
(lp990
(lp991
I1237
aI497
aI1301
aI561
aasg6
(lp992
(lp993
I562
aI243
aI673
aI346
aassS'D:\\BaiduNetdiskDownload\\image1000\\000743.jpg'
p994
(dp995
g3
(lp996
(lp997
I641
aI401
aI692
aI451
aasg6
(lp998
(lp999
I582
aI205
aI679
aI308
aassS'D:\\BaiduNetdiskDownload\\image1000\\000798.jpg'
p1000
(dp1001
g3
(lp1002
sg6
(lp1003
(lp1004
I1242
aI220
aI1346
aI326
aassS'D:\\BaiduNetdiskDownload\\image1000\\000105.jpg'
p1005
(dp1006
g3
(lp1007
(lp1008
I628
aI325
aI673
aI371
aasg6
(lp1009
(lp1010
I437
aI303
aI504
aI385
aassS'D:\\BaiduNetdiskDownload\\image1000\\000604.jpg'
p1011
(dp1012
g3
(lp1013
sg6
(lp1014
(lp1015
I549
aI306
aI645
aI417
aassS'D:\\BaiduNetdiskDownload\\image1000\\000749.jpg'
p1016
(dp1017
g3
(lp1018
(lp1019
I1503
aI409
aI1554
aI451
aasg6
(lp1020
(lp1021
I1713
aI288
aI1780
aI357
aassS'D:\\BaiduNetdiskDownload\\image1000\\000259.jpg'
p1022
(dp1023
g3
(lp1024
(lp1025
I1015
aI673
aI1054
aI717
aasg6
(lp1026
(lp1027
I433
aI184
aI493
aI257
aassS'D:\\BaiduNetdiskDownload\\image1000\\000679.jpg'
p1028
(dp1029
g3
(lp1030
(lp1031
I1322
aI533
aI1375
aI590
aasg6
(lp1032
(lp1033
I1157
aI320
aI1258
aI418
aassS'D:\\BaiduNetdiskDownload\\image1000\\000957.jpg'
p1034
(dp1035
g3
(lp1036
sg6
(lp1037
(lp1038
I1156
aI188
aI1256
aI319
aassS'D:\\BaiduNetdiskDownload\\image1000\\000446.jpg'
p1039
(dp1040
g3
(lp1041
(lp1042
I737
aI483
aI776
aI523
aasg6
(lp1043
(lp1044
I748
aI259
aI818
aI345
aassS'D:\\BaiduNetdiskDownload\\image1000\\000210.jpg'
p1045
(dp1046
g3
(lp1047
sg6
(lp1048
ssS'D:\\BaiduNetdiskDownload\\image1000\\000411.jpg'
p1049
(dp1050
g3
(lp1051
(lp1052
I852
aI484
aI942
aI561
aasg6
(lp1053
(lp1054
I838
aI73
aI993
aI223
aassS'D:\\BaiduNetdiskDownload\\image1000\\000241.jpg'
p1055
(dp1056
g3
(lp1057
(lp1058
I1243
aI358
aI1277
aI398
aasg6
(lp1059
(lp1060
I602
aI188
aI676
aI271
aassS'D:\\BaiduNetdiskDownload\\image1000\\000866.jpg'
p1061
(dp1062
g3
(lp1063
(lp1064
I791
aI398
aI842
aI454
aasg6
(lp1065
(lp1066
I924
aI260
aI1052
aI374
aassS'D:\\BaiduNetdiskDownload\\image1000\\000129.jpg'
p1067
(dp1068
g3
(lp1069
(lp1070
I1078
aI716
aI1125
aI774
aasg6
(lp1071
(lp1072
I610
aI99
aI701
aI202
aassS'D:\\BaiduNetdiskDownload\\image1000\\000691.jpg'
p1073
(dp1074
g3
(lp1075
(lp1076
I616
aI659
aI659
aI711
aasg6
(lp1077
(lp1078
I700
aI283
aI784
aI362
aassS'D:\\BaiduNetdiskDownload\\image1000\\000361.jpg'
p1079
(dp1080
g3
(lp1081
sg6
(lp1082
(lp1083
I447
aI145
aI540
aI239
aassS'D:\\BaiduNetdiskDownload\\image1000\\000613.jpg'
p1084
(dp1085
g3
(lp1086
(lp1087
I808
aI464
aI858
aI523
aasg6
(lp1088
(lp1089
I624
aI202
aI714
aI296
aassS'D:\\BaiduNetdiskDownload\\image1000\\000982.jpg'
p1090
(dp1091
g3
(lp1092
(lp1093
I322
aI587
aI611
aI837
aasg6
(lp1094
ssS'D:\\BaiduNetdiskDownload\\image1000\\000271.jpg'
p1095
(dp1096
g3
(lp1097
(lp1098
I738
aI454
aI784
aI515
aasg6
(lp1099
(lp1100
I690
aI197
aI796
aI309
aassS'D:\\BaiduNetdiskDownload\\image1000\\000460.jpg'
p1101
(dp1102
g3
(lp1103
sg6
(lp1104
(lp1105
I504
aI389
aI572
aI475
aassS'D:\\BaiduNetdiskDownload\\image1000\\000937.jpg'
p1106
(dp1107
g3
(lp1108
(lp1109
I1069
aI236
aI1187
aI358
aasg6
(lp1110
(lp1111
I1002
aI263
aI1270
aI541
aassS'D:\\BaiduNetdiskDownload\\image1000\\000078.jpg'
p1112
(dp1113
g3
(lp1114
(lp1115
I558
aI504
aI610
aI550
aasg6
(lp1116
ssS'D:\\BaiduNetdiskDownload\\image1000\\000914.jpg'
p1117
(dp1118
g3
(lp1119
sg6
(lp1120
(lp1121
I1136
aI332
aI1220
aI434
aassS'D:\\BaiduNetdiskDownload\\image1000\\000537.jpg'
p1122
(dp1123
g3
(lp1124
(lp1125
I274
aI627
aI327
aI668
aasg6
(lp1126
ssS'D:\\BaiduNetdiskDownload\\image1000\\000871.jpg'
p1127
(dp1128
g3
(lp1129
(lp1130
I872
aI495
aI962
aI598
aasg6
(lp1131
ssS'D:\\BaiduNetdiskDownload\\image1000\\000266.jpg'
p1132
(dp1133
g3
(lp1134
sg6
(lp1135
(lp1136
I1430
aI237
aI1498
aI323
aassS'D:\\BaiduNetdiskDownload\\image1000\\000876.jpg'
p1137
(dp1138
g3
(lp1139
(lp1140
I790
aI532
aI891
aI610
aasg6
(lp1141
(lp1142
I896
aI613
aI1092
aI828
aassS'D:\\BaiduNetdiskDownload\\image1000\\000351.jpg'
p1143
(dp1144
g3
(lp1145
(lp1146
I887
aI497
aI929
aI543
aasg6
(lp1147
(lp1148
I849
aI312
aI948
aI415
aassS'D:\\BaiduNetdiskDownload\\image1000\\000492.jpg'
p1149
(dp1150
g3
(lp1151
(lp1152
I1056
aI329
aI1116
aI403
aasg6
(lp1153
(lp1154
I1038
aI144
aI1147
aI283
aassS'D:\\BaiduNetdiskDownload\\image1000\\000712.jpg'
p1155
(dp1156
g3
(lp1157
(lp1158
I1161
aI747
aI1264
aI845
aasg6
(lp1159
(lp1160
I1177
aI19
aI1310
aI177
aassS'D:\\BaiduNetdiskDownload\\image1000\\000404.jpg'
p1161
(dp1162
g3
(lp1163
(lp1164
I254
aI533
aI315
aI605
aasg6
(lp1165
(lp1166
I1589
aI167
aI1672
aI253
aassS'D:\\BaiduNetdiskDownload\\image1000\\000752.jpg'
p1167
(dp1168
g3
(lp1169
(lp1170
I1322
aI563
aI1379
aI636
aasg6
(lp1171
(lp1172
I573
aI177
aI687
aI291
aassS'D:\\BaiduNetdiskDownload\\image1000\\000978.jpg'
p1173
(dp1174
g3
(lp1175
(lp1176
I1132
aI394
aI1185
aI455
aasg6
(lp1177
(lp1178
I711
aI242
aI836
aI355
aassS'D:\\BaiduNetdiskDownload\\image1000\\000905.jpg'
p1179
(dp1180
g3
(lp1181
(lp1182
I285
aI374
aI329
aI421
aasg6
(lp1183
(lp1184
I1243
aI116
aI1340
aI210
aassS'D:\\BaiduNetdiskDownload\\image1000\\000128.jpg'
p1185
(dp1186
g3
(lp1187
(lp1188
I455
aI662
aI503
aI722
aasg6
(lp1189
(lp1190
I1403
aI130
aI1475
aI219
aassS'D:\\BaiduNetdiskDownload\\image1000\\000609.jpg'
p1191
(dp1192
g3
(lp1193
(lp1194
I1384
aI394
aI1427
aI435
aasg6
(lp1195
(lp1196
I327
aI185
aI413
aI286
aassS'D:\\BaiduNetdiskDownload\\image1000\\000138.jpg'
p1197
(dp1198
g3
(lp1199
(lp1200
I1475
aI708
aI1732
aI955
aasg6
(lp1201
ssS'D:\\BaiduNetdiskDownload\\image1000\\000855.jpg'
p1202
(dp1203
g3
(lp1204
(lp1205
I798
aI355
aI835
aI389
aasg6
(lp1206
ssS'D:\\BaiduNetdiskDownload\\image1000\\000858.jpg'
p1207
(dp1208
g3
(lp1209
(lp1210
I670
aI765
aI720
aI819
aasg6
(lp1211
(lp1212
I877
aI233
aI983
aI325
aassS'D:\\BaiduNetdiskDownload\\image1000\\000016.jpg'
p1213
(dp1214
g3
(lp1215
(lp1216
I777
aI395
aI838
aI449
aasg6
(lp1217
(lp1218
I1455
aI145
aI1528
aI223
aassS'D:\\BaiduNetdiskDownload\\image1000\\000797.jpg'
p1219
(dp1220
g3
(lp1221
(lp1222
I1157
aI395
aI1229
aI460
aasg6
(lp1223
(lp1224
I1320
aI217
aI1403
aI312
aassS'D:\\BaiduNetdiskDownload\\image1000\\000314.jpg'
p1225
(dp1226
g3
(lp1227
(lp1228
I1076
aI727
aI1126
aI776
aasg6
(lp1229
(lp1230
I230
aI84
aI323
aI171
aassS'D:\\BaiduNetdiskDownload\\image1000\\000759.jpg'
p1231
(dp1232
g3
(lp1233
sg6
(lp1234
(lp1235
I737
aI381
aI796
aI440
aassS'D:\\BaiduNetdiskDownload\\image1000\\000143.jpg'
p1236
(dp1237
g3
(lp1238
(lp1239
I1565
aI618
aI1804
aI854
aasg6
(lp1240
ssS'D:\\BaiduNetdiskDownload\\image1000\\000517.jpg'
p1241
(dp1242
g3
(lp1243
sg6
(lp1244
(lp1245
I289
aI161
aI372
aI262
aassS'D:\\BaiduNetdiskDownload\\image1000\\000244.jpg'
p1246
(dp1247
g3
(lp1248
(lp1249
I1084
aI67
aI1192
aI170
aasg6
(lp1250
ssS'D:\\BaiduNetdiskDownload\\image1000\\000714.jpg'
p1251
(dp1252
g3
(lp1253
(lp1254
I908
aI480
aI962
aI533
aasg6
(lp1255
ssS'D:\\BaiduNetdiskDownload\\image1000\\000473.jpg'
p1256
(dp1257
g3
(lp1258
sg6
(lp1259
(lp1260
I618
aI211
aI697
aI293
aassS'D:\\BaiduNetdiskDownload\\image1000\\000908.jpg'
p1261
(dp1262
g3
(lp1263
sg6
(lp1264
(lp1265
I1187
aI171
aI1298
aI270
aassS'D:\\BaiduNetdiskDownload\\image1000\\000796.jpg'
p1266
(dp1267
g3
(lp1268
sg6
(lp1269
(lp1270
I1453
aI211
aI1547
aI305
aassS'D:\\BaiduNetdiskDownload\\image1000\\000058.jpg'
p1271
(dp1272
g3
(lp1273
(lp1274
I1160
aI615
aI1199
aI648
aasg6
(lp1275
(lp1276
I711
aI202
aI765
aI254
aassS'D:\\BaiduNetdiskDownload\\image1000\\000272.jpg'
p1277
(dp1278
g3
(lp1279
(lp1280
I188
aI567
aI223
aI605
aasg6
(lp1281
(lp1282
I1365
aI237
aI1436
aI320
aassS'D:\\BaiduNetdiskDownload\\image1000\\000393.jpg'
p1283
(dp1284
g3
(lp1285
sg6
(lp1286
(lp1287
I708
aI245
aI790
aI342
aassS'D:\\BaiduNetdiskDownload\\image1000\\000250.jpg'
p1288
(dp1289
g3
(lp1290
sg6
(lp1291
(lp1292
I1490
aI159
aI1572
aI254
aassS'D:\\BaiduNetdiskDownload\\image1000\\000894.jpg'
p1293
(dp1294
g3
(lp1295
sg6
(lp1296
(lp1297
I793
aI265
aI867
aI340
aassS'D:\\BaiduNetdiskDownload\\image1000\\000967.jpg'
p1298
(dp1299
g3
(lp1300
(lp1301
I1154
aI293
aI1222
aI343
aasg6
(lp1302
(lp1303
I732
aI246
aI835
aI357
aassS'D:\\BaiduNetdiskDownload\\image1000\\000279.jpg'
p1304
(dp1305
g3
(lp1306
sg6
(lp1307
(lp1308
I676
aI273
aI742
aI345
aassS'D:\\BaiduNetdiskDownload\\image1000\\000568.jpg'
p1309
(dp1310
g3
(lp1311
sg6
(lp1312
(lp1313
I1302
aI240
aI1374
aI326
aassS'D:\\BaiduNetdiskDownload\\image1000\\000808.jpg'
p1314
(dp1315
g3
(lp1316
(lp1317
I1616
aI432
aI1672
aI484
aasg6
(lp1318
(lp1319
I395
aI233
aI512
aI312
aassS'D:\\BaiduNetdiskDownload\\image1000\\000948.jpg'
p1320
(dp1321
g3
(lp1322
sg6
(lp1323
(lp1324
I978
aI174
aI1085
aI302
aassS'D:\\BaiduNetdiskDownload\\image1000\\000641.jpg'
p1325
(dp1326
g3
(lp1327
(lp1328
I618
aI716
aI672
aI771
aasg6
(lp1329
(lp1330
I1188
aI148
aI1289
aI253
aassS'D:\\BaiduNetdiskDownload\\image1000\\000346.jpg'
p1331
(dp1332
g3
(lp1333
(lp1334
I759
aI552
aI814
aI602
aasg6
(lp1335
(lp1336
I848
aI312
aI948
aI423
aassS'D:\\BaiduNetdiskDownload\\image1000\\000511.jpg'
p1337
(dp1338
g3
(lp1339
(lp1340
I1614
aI329
aI1654
aI377
aasg6
(lp1341
(lp1342
I64
aI159
aI150
aI257
aassS'D:\\BaiduNetdiskDownload\\image1000\\000643.jpg'
p1343
(dp1344
g3
(lp1345
(lp1346
I386
aI572
aI459
aI630
aasg6
(lp1347
(lp1348
I1298
aI142
aI1409
aI250
aassS'D:\\BaiduNetdiskDownload\\image1000\\000901.jpg'
p1349
(dp1350
g3
(lp1351
sg6
(lp1352
(lp1353
I1322
aI135
aI1413
aI216
aassS'D:\\BaiduNetdiskDownload\\image1000\\000769.jpg'
p1354
(dp1355
g3
(lp1356
(lp1357
I1434
aI605
aI1490
aI651
aasg6
(lp1358
(lp1359
I507
aI248
aI609
aI331
aassS'D:\\BaiduNetdiskDownload\\image1000\\000067.jpg'
p1360
(dp1361
g3
(lp1362
(lp1363
I360
aI552
aI410
aI605
aasg6
(lp1364
ssS'D:\\BaiduNetdiskDownload\\image1000\\000494.jpg'
p1365
(dp1366
g3
(lp1367
sg6
(lp1368
(lp1369
I917
aI256
aI1043
aI391
aassS'D:\\BaiduNetdiskDownload\\image1000\\000754.jpg'
p1370
(dp1371
g3
(lp1372
sg6
(lp1373
(lp1374
I735
aI412
aI782
aI458
aassS'D:\\BaiduNetdiskDownload\\image1000\\000464.jpg'
p1375
(dp1376
g3
(lp1377
(lp1378
I1507
aI763
aI1558
aI817
aasg6
(lp1379
(lp1380
I541
aI162
aI620
aI243
aassS'D:\\BaiduNetdiskDownload\\image1000\\000879.jpg'
p1381
(dp1382
g3
(lp1383
(lp1384
I1379
aI564
aI1434
aI624
aasg6
(lp1385
(lp1386
I711
aI245
aI836
aI366
aassS'D:\\BaiduNetdiskDownload\\image1000\\000290.jpg'
p1387
(dp1388
g3
(lp1389
(lp1390
I354
aI670
aI400
aI719
aasg6
(lp1391
(lp1392
I1362
aI144
aI1462
aI242
aassS'D:\\BaiduNetdiskDownload\\image1000\\000159.jpg'
p1393
(dp1394
g3
(lp1395
(lp1396
I600
aI584
aI651
aI641
aasg6
(lp1397
(lp1398
I538
aI216
aI606
aI296
aassS'D:\\BaiduNetdiskDownload\\image1000\\000008.jpg'
p1399
(dp1400
g3
(lp1401
(lp1402
I566
aI191
aI618
aI245
aasg6
(lp1403
(lp1404
I541
aI270
aI603
aI349
aassS'D:\\BaiduNetdiskDownload\\image1000\\000860.jpg'
p1405
(dp1406
g3
(lp1407
(lp1408
I1444
aI754
aI1498
aI814
aasg6
(lp1409
ssS'D:\\BaiduNetdiskDownload\\image1000\\000663.jpg'
p1410
(dp1411
g3
(lp1412
sg6
(lp1413
(lp1414
I476
aI228
aI564
aI311
aassS'D:\\BaiduNetdiskDownload\\image1000\\000156.jpg'
p1415
(dp1416
g3
(lp1417
(lp1418
I1187
aI561
aI1415
aI773
aasg6
(lp1419
ssS'D:\\BaiduNetdiskDownload\\image1000\\000248.jpg'
p1420
(dp1421
g3
(lp1422
(lp1423
I1137
aI368
aI1173
aI423
aasg6
(lp1424
(lp1425
I1227
aI182
aI1303
aI270
aassS'D:\\BaiduNetdiskDownload\\image1000\\000398.jpg'
p1426
(dp1427
g3
(lp1428
(lp1429
I1194
aI438
aI1240
aI487
aasg6
(lp1430
(lp1431
I772
aI78
aI877
aI202
aassS'D:\\BaiduNetdiskDownload\\image1000\\000742.jpg'
p1432
(dp1433
g3
(lp1434
(lp1435
I662
aI205
aI707
aI250
aasg6
(lp1436
(lp1437
I599
aI239
aI699
aI332
aassS'D:\\BaiduNetdiskDownload\\image1000\\000082.jpg'
p1438
(dp1439
g3
(lp1440
(lp1441
I666
aI648
aI725
aI708
aasg6
(lp1442
(lp1443
I1403
aI227
aI1460
aI306
aassS'D:\\BaiduNetdiskDownload\\image1000\\000409.jpg'
p1444
(dp1445
g3
(lp1446
(lp1447
I1039
aI484
aI1077
aI533
aasg6
(lp1448
ssS'D:\\BaiduNetdiskDownload\\image1000\\000298.jpg'
p1449
(dp1450
g3
(lp1451
(lp1452
I441
aI708
aI490
aI759
aasg6
(lp1453
(lp1454
I1097
aI263
aI1197
aI394
aassS'D:\\BaiduNetdiskDownload\\image1000\\000335.jpg'
p1455
(dp1456
g3
(lp1457
(lp1458
I1229
aI754
aI1277
aI805
aasg6
(lp1459
(lp1460
I558
aI108
aI635
aI205
aassS'D:\\BaiduNetdiskDownload\\image1000\\000810.jpg'
p1461
(dp1462
g3
(lp1463
sg6
(lp1464
(lp1465
I474
aI257
aI566
aI332
aassS'D:\\BaiduNetdiskDownload\\image1000\\000452.jpg'
p1466
(dp1467
g3
(lp1468
(lp1469
I1156
aI354
aI1194
aI395
aasg6
(lp1470
(lp1471
I478
aI222
aI555
aI306
aassS'D:\\BaiduNetdiskDownload\\image1000\\000549.jpg'
p1472
(dp1473
g3
(lp1474
sg6
(lp1475
(lp1476
I1469
aI268
aI1536
aI346
aassS'D:\\BaiduNetdiskDownload\\image1000\\000193.jpg'
p1477
(dp1478
g3
(lp1479
(lp1480
I1595
aI668
aI1656
aI734
aasg6
(lp1481
(lp1482
I1000
aI135
aI1111
aI248
aassS'D:\\BaiduNetdiskDownload\\image1000\\000077.jpg'
p1483
(dp1484
g3
(lp1485
(lp1486
I1261
aI414
aI1305
aI454
aasg6
(lp1487
ssS'D:\\BaiduNetdiskDownload\\image1000\\000098.jpg'
p1488
(dp1489
g3
(lp1490
(lp1491
I1091
aI635
aI1129
aI678
aasg6
(lp1492
(lp1493
I682
aI222
aI741
aI297
aassS'D:\\BaiduNetdiskDownload\\image1000\\000100.jpg'
p1494
(dp1495
g3
(lp1496
(lp1497
I1482
aI486
aI1531
aI544
aasg6
(lp1498
(lp1499
I192
aI194
aI267
aI291
aassS'D:\\BaiduNetdiskDownload\\image1000\\000744.jpg'
p1500
(dp1501
g3
(lp1502
sg6
(lp1503
(lp1504
I1692
aI293
aI1769
aI360
aassS'D:\\BaiduNetdiskDownload\\image1000\\000707.jpg'
p1505
(dp1506
g3
(lp1507
(lp1508
I589
aI750
aI651
aI810
aasg6
(lp1509
(lp1510
I1472
aI216
aI1597
aI337
aassS'D:\\BaiduNetdiskDownload\\image1000\\000785.jpg'
p1511
(dp1512
g3
(lp1513
(lp1514
I496
aI541
aI565
aI609
aasg6
(lp1515
(lp1516
I523
aI237
aI621
aI323
aassS'D:\\BaiduNetdiskDownload\\image1000\\000397.jpg'
p1517
(dp1518
g3
(lp1519
(lp1520
I1548
aI441
aI1599
aI490
aasg6
(lp1521
(lp1522
I329
aI274
aI426
aI372
aassS'D:\\BaiduNetdiskDownload\\image1000\\000004.jpg'
p1523
(dp1524
g3
(lp1525
(lp1526
I309
aI651
aI364
aI716
aasg6
(lp1527
(lp1528
I1665
aI193
aI1754
aI306
aassS'D:\\BaiduNetdiskDownload\\image1000\\000678.jpg'
p1529
(dp1530
g3
(lp1531
(lp1532
I1483
aI483
aI1545
aI536
aasg6
(lp1533
(lp1534
I147
aI154
aI265
aI265
aassS'D:\\BaiduNetdiskDownload\\image1000\\000684.jpg'
p1535
(dp1536
g3
(lp1537
(lp1538
I1415
aI423
aI1460
aI477
aasg6
(lp1539
ssS'D:\\BaiduNetdiskDownload\\image1000\\000274.jpg'
p1540
(dp1541
g3
(lp1542
(lp1543
I918
aI127
aI959
aI171
aasg6
(lp1544
(lp1545
I1126
aI222
aI1201
aI299
aassS'D:\\BaiduNetdiskDownload\\image1000\\000853.jpg'
p1546
(dp1547
g3
(lp1548
sg6
(lp1549
(lp1550
I576
aI268
aI659
aI357
aassS'D:\\BaiduNetdiskDownload\\image1000\\000287.jpg'
p1551
(dp1552
g3
(lp1553
(lp1554
I1061
aI409
aI1101
aI451
aasg6
(lp1555
(lp1556
I1125
aI216
aI1199
aI302
aassS'D:\\BaiduNetdiskDownload\\image1000\\000527.jpg'
p1557
(dp1558
g3
(lp1559
sg6
(lp1560
(lp1561
I413
aI179
aI486
aI276
aassS'D:\\BaiduNetdiskDownload\\image1000\\000830.jpg'
p1562
(dp1563
g3
(lp1564
(lp1565
I1689
aI536
aI1744
aI589
aasg6
(lp1566
(lp1567
I496
aI230
aI593
aI308
aassS'D:\\BaiduNetdiskDownload\\image1000\\000145.jpg'
p1568
(dp1569
g3
(lp1570
sg6
(lp1571
(lp1572
I676
aI309
aI786
aI443
aassS'D:\\BaiduNetdiskDownload\\image1000\\000184.jpg'
p1573
(dp1574
g3
(lp1575
(lp1576
I1095
aI673
aI1130
aI711
aasg6
(lp1577
(lp1578
I672
aI240
aI731
aI306
aassS'D:\\BaiduNetdiskDownload\\image1000\\000217.jpg'
p1579
(dp1580
g3
(lp1581
(lp1582
I1520
aI403
aI1557
aI441
aasg6
(lp1583
(lp1584
I364
aI233
aI440
aI308
aassS'D:\\BaiduNetdiskDownload\\image1000\\000520.jpg'
p1585
(dp1586
g3
(lp1587
(lp1588
I1599
aI403
aI1651
aI457
aasg6
(lp1589
(lp1590
I350
aI147
aI443
aI245
aassS'D:\\BaiduNetdiskDownload\\image1000\\000889.jpg'
p1591
(dp1592
g3
(lp1593
sg6
(lp1594
(lp1595
I1240
aI133
aI1351
aI227
aassS'D:\\BaiduNetdiskDownload\\image1000\\000095.jpg'
p1596
(dp1597
g3
(lp1598
(lp1599
I1486
aI696
aI1551
aI753
aasg6
(lp1600
(lp1601
I1236
aI231
aI1305
aI320
aassS'D:\\BaiduNetdiskDownload\\image1000\\000920.jpg'
p1602
(dp1603
g3
(lp1604
sg6
(lp1605
(lp1606
I1302
aI95
aI1431
aI202
aassS'D:\\BaiduNetdiskDownload\\image1000\\000919.jpg'
p1607
(dp1608
g3
(lp1609
sg6
(lp1610
(lp1611
I1323
aI125
aI1430
aI236
aassS'D:\\BaiduNetdiskDownload\\image1000\\000321.jpg'
p1612
(dp1613
g3
(lp1614
(lp1615
I1088
aI412
aI1199
aI529
aasg6
(lp1616
(lp1617
I867
aI21
aI1029
aI200
aassS'D:\\BaiduNetdiskDownload\\image1000\\000741.jpg'
p1618
(dp1619
g3
(lp1620
(lp1621
I320
aI635
aI376
aI684
aasg6
(lp1622
(lp1623
I1340
aI170
aI1430
aI260
aassS'D:\\BaiduNetdiskDownload\\image1000\\000081.jpg'
p1624
(dp1625
g3
(lp1626
(lp1627
I1047
aI452
aI1081
aI489
aasg6
(lp1628
(lp1629
I452
aI257
aI534
aI365
aassS'D:\\BaiduNetdiskDownload\\image1000\\000148.jpg'
p1630
(dp1631
g3
(lp1632
(lp1633
I1337
aI670
aI1393
aI719
aasg6
(lp1634
(lp1635
I475
aI142
aI561
aI236
aassS'D:\\BaiduNetdiskDownload\\image1000\\000031.jpg'
p1636
(dp1637
g3
(lp1638
(lp1639
I642
aI466
aI694
aI520
aasg6
(lp1640
(lp1641
I610
aI240
aI682
aI316
aassS'D:\\BaiduNetdiskDownload\\image1000\\000026.jpg'
p1642
(dp1643
g3
(lp1644
(lp1645
I884
aI233
aI946
aI294
aasg6
(lp1646
(lp1647
I1095
aI118
aI1227
aI248
aassS'D:\\BaiduNetdiskDownload\\image1000\\000180.jpg'
p1648
(dp1649
g3
(lp1650
(lp1651
I811
aI173
aI863
aI233
aasg6
(lp1652
(lp1653
I686
aI153
aI780
aI256
aassS'D:\\BaiduNetdiskDownload\\image1000\\000161.jpg'
p1654
(dp1655
g3
(lp1656
sg6
(lp1657
(lp1658
I618
aI309
aI704
aI398
aassS'D:\\BaiduNetdiskDownload\\image1000\\000122.jpg'
p1659
(dp1660
g3
(lp1661
sg6
(lp1662
(lp1663
I728
aI331
aI811
aI438
aassS'D:\\BaiduNetdiskDownload\\image1000\\000234.jpg'
p1664
(dp1665
g3
(lp1666
(lp1667
I1412
aI312
aI1450
aI352
aasg6
(lp1668
(lp1669
I616
aI182
aI680
aI265
aassS'D:\\BaiduNetdiskDownload\\image1000\\000175.jpg'
p1670
(dp1671
g3
(lp1672
(lp1673
I1417
aI398
aI1458
aI443
aasg6
(lp1674
(lp1675
I524
aI141
aI618
aI234
aassS'D:\\BaiduNetdiskDownload\\image1000\\000654.jpg'
p1676
(dp1677
g3
(lp1678
(lp1679
I1312
aI314
aI1388
aI383
aasg6
(lp1680
(lp1681
I908
aI121
aI1026
aI243
aassS'D:\\BaiduNetdiskDownload\\image1000\\000308.jpg'
p1682
(dp1683
g3
(lp1684
(lp1685
I466
aI279
aI521
aI335
aasg6
(lp1686
(lp1687
I1098
aI260
aI1215
aI400
aassS'D:\\BaiduNetdiskDownload\\image1000\\000449.jpg'
p1688
(dp1689
g3
(lp1690
(lp1691
I1492
aI443
aI1536
aI500
aasg6
(lp1692
(lp1693
I665
aI302
aI752
aI381
aassS'D:\\BaiduNetdiskDownload\\image1000\\000399.jpg'
p1694
(dp1695
g3
(lp1696
(lp1697
I821
aI385
aI866
aI429
aasg6
(lp1698
(lp1699
I669
aI161
aI744
aI250
aassS'D:\\BaiduNetdiskDownload\\image1000\\000013.jpg'
p1700
(dp1701
g3
(lp1702
(lp1703
I983
aI84
aI1042
aI145
aasg6
(lp1704
(lp1705
I1136
aI250
aI1243
aI383
aassS'D:\\BaiduNetdiskDownload\\image1000\\000697.jpg'
p1706
(dp1707
g3
(lp1708
sg6
(lp1709
(lp1710
I668
aI262
aI742
aI345
aassS'D:\\BaiduNetdiskDownload\\image1000\\000577.jpg'
p1711
(dp1712
g3
(lp1713
(lp1714
I199
aI773
aI257
aI833
aasg6
(lp1715
(lp1716
I1620
aI105
aI1765
aI225
aassS'D:\\BaiduNetdiskDownload\\image1000\\000968.jpg'
p1717
(dp1718
g3
(lp1719
sg6
(lp1720
(lp1721
I1453
aI128
aI1576
aI236
aassS'D:\\BaiduNetdiskDownload\\image1000\\000985.jpg'
p1722
(dp1723
g3
(lp1724
(lp1725
I628
aI624
aI679
aI679
aasg6
(lp1726
(lp1727
I623
aI279
aI728
aI374
aassS'D:\\BaiduNetdiskDownload\\image1000\\000126.jpg'
p1728
(dp1729
g3
(lp1730
(lp1731
I1070
aI497
aI1137
aI572
aasg6
(lp1732
(lp1733
I1133
aI108
aI1253
aI222
aassS'D:\\BaiduNetdiskDownload\\image1000\\000843.jpg'
p1734
(dp1735
g3
(lp1736
(lp1737
I744
aI567
aI818
aI642
aasg6
(lp1738
(lp1739
I1332
aI222
aI1420
aI303
aassS'D:\\BaiduNetdiskDownload\\image1000\\000202.jpg'
p1740
(dp1741
g3
(lp1742
sg6
(lp1743
(lp1744
I579
aI243
aI640
aI331
aassS'D:\\BaiduNetdiskDownload\\image1000\\000099.jpg'
p1745
(dp1746
g3
(lp1747
(lp1748
I794
aI536
aI839
aI581
aasg6
(lp1749
(lp1750
I234
aI282
aI313
aI358
aassS'D:\\BaiduNetdiskDownload\\image1000\\000199.jpg'
p1751
(dp1752
g3
(lp1753
(lp1754
I1424
aI254
aI1482
aI309
aasg6
(lp1755
ssS'D:\\BaiduNetdiskDownload\\image1000\\000169.jpg'
p1756
(dp1757
g3
(lp1758
(lp1759
I863
aI503
aI903
aI546
aasg6
(lp1760
(lp1761
I821
aI303
aI918
aI401
aassS'D:\\BaiduNetdiskDownload\\image1000\\000656.jpg'
p1762
(dp1763
g3
(lp1764
sg6
(lp1765
(lp1766
I721
aI248
aI815
aI337
aassS'D:\\BaiduNetdiskDownload\\image1000\\000392.jpg'
p1767
(dp1768
g3
(lp1769
(lp1770
I1408
aI417
aI1441
aI458
aasg6
(lp1771
(lp1772
I374
aI283
aI481
aI368
aassS'D:\\BaiduNetdiskDownload\\image1000\\000251.jpg'
p1773
(dp1774
g3
(lp1775
sg6
(lp1776
(lp1777
I1424
aI233
aI1489
aI305
aassS'D:\\BaiduNetdiskDownload\\image1000\\000677.jpg'
p1778
(dp1779
g3
(lp1780
(lp1781
I1362
aI196
aI1405
aI242
aasg6
(lp1782
(lp1783
I1341
aI266
aI1440
aI342
aassS'D:\\BaiduNetdiskDownload\\image1000\\000400.jpg'
p1784
(dp1785
g3
(lp1786
sg6
(lp1787
(lp1788
I693
aI254
aI772
aI346
aassS'D:\\BaiduNetdiskDownload\\image1000\\000345.jpg'
p1789
(dp1790
g3
(lp1791
(lp1792
I1360
aI435
aI1393
aI474
aasg6
(lp1793
ssS'D:\\BaiduNetdiskDownload\\image1000\\000510.jpg'
p1794
(dp1795
g3
(lp1796
(lp1797
I805
aI19
aI1152
aI312
aasg6
(lp1798
ssS'D:\\BaiduNetdiskDownload\\image1000\\000472.jpg'
p1799
(dp1800
g3
(lp1801
(lp1802
I652
aI590
aI708
aI645
aasg6
(lp1803
(lp1804
I1417
aI211
aI1483
aI291
aassS'D:\\BaiduNetdiskDownload\\image1000\\000535.jpg'
p1805
(dp1806
g3
(lp1807
(lp1808
I454
aI550
aI561
aI656
aasg6
(lp1809
ssS'D:\\BaiduNetdiskDownload\\image1000\\000594.jpg'
p1810
(dp1811
g3
(lp1812
(lp1813
I637
aI587
aI690
aI648
aasg6
(lp1814
(lp1815
I1458
aI99
aI1562
aI216
aassS'D:\\BaiduNetdiskDownload\\image1000\\000519.jpg'
p1816
(dp1817
g3
(lp1818
(lp1819
I573
aI92
aI631
aI145
aasg6
(lp1820
(lp1821
I559
aI228
aI668
aI343
aassS'D:\\BaiduNetdiskDownload\\image1000\\000012.jpg'
p1822
(dp1823
g3
(lp1824
(lp1825
I420
aI355
aI481
aI420
aasg6
(lp1826
(lp1827
I1132
aI254
aI1230
aI385
aassS'D:\\BaiduNetdiskDownload\\image1000\\000637.jpg'
p1828
(dp1829
g3
(lp1830
(lp1831
I1056
aI497
aI1126
aI564
aa(lp1832
I1069
aI498
aI1123
aI555
aasg6
(lp1833
(lp1834
I575
aI239
aI699
aI345
aassS'D:\\BaiduNetdiskDownload\\image1000\\000962.jpg'
p1835
(dp1836
g3
(lp1837
sg6
(lp1838
(lp1839
I1118
aI113
aI1240
aI214
aassS'D:\\BaiduNetdiskDownload\\image1000\\000305.jpg'
p1840
(dp1841
g3
(lp1842
(lp1843
I741
aI391
aI787
aI437
aasg6
(lp1844
ssS'D:\\BaiduNetdiskDownload\\image1000\\000614.jpg'
p1845
(dp1846
g3
(lp1847
(lp1848
I278
aI656
aI338
aI710
aasg6
(lp1849
(lp1850
I631
aI150
aI721
aI253
aassS'D:\\BaiduNetdiskDownload\\image1000\\000313.jpg'
p1851
(dp1852
g3
(lp1853
(lp1854
I1042
aI702
aI1094
aI760
aasg6
(lp1855
(lp1856
I832
aI320
aI918
aI417
aassS'D:\\BaiduNetdiskDownload\\image1000\\000721.jpg'
p1857
(dp1858
g3
(lp1859
(lp1860
I223
aI555
aI268
aI605
aasg6
(lp1861
(lp1862
I1323
aI187
aI1416
aI268
aassS'D:\\BaiduNetdiskDownload\\image1000\\000826.jpg'
p1863
(dp1864
g3
(lp1865
(lp1866
I1571
aI708
aI1502
aI760
aasg6
(lp1867
(lp1868
I670
aI251
aI748
aI319
aassS'D:\\BaiduNetdiskDownload\\image1000\\000087.jpg'
p1869
(dp1870
g3
(lp1871
(lp1872
I928
aI714
aI978
aI774
aasg6
(lp1873
(lp1874
I1402
aI228
aI1469
aI309
aassS'D:\\BaiduNetdiskDownload\\image1000\\000211.jpg'
p1875
(dp1876
g3
(lp1877
sg6
(lp1878
(lp1879
I569
aI259
aI655
aI334
aassS'D:\\BaiduNetdiskDownload\\image1000\\000060.jpg'
p1880
(dp1881
g3
(lp1882
(lp1883
I1547
aI567
aI1599
aI615
aasg6
(lp1884
(lp1885
I544
aI179
aI617
aI263
aassS'D:\\BaiduNetdiskDownload\\image1000\\000412.jpg'
p1886
(dp1887
g3
(lp1888
(lp1889
I1588
aI515
aI1635
aI561
aasg6
(lp1890
(lp1891
I755
aI246
aI818
aI322
aassS'D:\\BaiduNetdiskDownload\\image1000\\000208.jpg'
p1892
(dp1893
g3
(lp1894
(lp1895
I1416
aI293
aI1464
aI343
aasg6
(lp1896
ssS'D:\\BaiduNetdiskDownload\\image1000\\000623.jpg'
p1897
(dp1898
g3
(lp1899
(lp1900
I271
aI783
aI324
aI839
aasg6
(lp1901
(lp1902
I1422
aI248
aI1509
aI329
aassS'D:\\BaiduNetdiskDownload\\image1000\\000394.jpg'
p1903
(dp1904
g3
(lp1905
(lp1906
I1779
aI362
aI1831
aI415
aasg6
(lp1907
(lp1908
I320
aI158
aI399
aI265
aassS'D:\\BaiduNetdiskDownload\\image1000\\000430.jpg'
p1909
(dp1910
g3
(lp1911
(lp1912
I1365
aI434
aI1399
aI469
aasg6
(lp1913
(lp1914
I109
aI245
aI187
aI323
aassS'D:\\BaiduNetdiskDownload\\image1000\\000619.jpg'
p1915
(dp1916
g3
(lp1917
(lp1918
I258
aI685
aI306
aI734
aasg6
(lp1919
(lp1920
I1824
aI234
aI1907
aI331
aassS'D:\\BaiduNetdiskDownload\\image1000\\000730.jpg'
p1921
(dp1922
g3
(lp1923
(lp1924
I1112
aI544
aI1153
aI589
aasg6
(lp1925
(lp1926
I569
aI265
aI638
aI342
aassS'D:\\BaiduNetdiskDownload\\image1000\\000834.jpg'
p1927
(dp1928
g3
(lp1929
sg6
(lp1930
(lp1931
I499
aI236
aI604
aI332
aassS'D:\\BaiduNetdiskDownload\\image1000\\000943.jpg'
p1932
(dp1933
g3
(lp1934
(lp1935
I161
aI366
aI215
aI415
aasg6
(lp1936
(lp1937
I1384
aI95
aI1474
aI190
aassS'D:\\BaiduNetdiskDownload\\image1000\\000196.jpg'
p1938
(dp1939
g3
(lp1940
(lp1941
I807
aI668
aI859
aI730
aasg6
(lp1942
(lp1943
I237
aI133
aI340
aI239
aassS'D:\\BaiduNetdiskDownload\\image1000\\000296.jpg'
p1944
(dp1945
g3
(lp1946
(lp1947
I751
aI472
aI803
aI521
aasg6
(lp1948
ssS'D:\\BaiduNetdiskDownload\\image1000\\000562.jpg'
p1949
(dp1950
g3
(lp1951
(lp1952
I223
aI601
aI270
aI639
aasg6
(lp1953
(lp1954
I1400
aI257
aI1464
aI332
aassS'D:\\BaiduNetdiskDownload\\image1000\\000668.jpg'
p1955
(dp1956
g3
(lp1957
(lp1958
I772
aI415
aI822
aI461
aasg6
(lp1959
ssS'D:\\BaiduNetdiskDownload\\image1000\\000480.jpg'
p1960
(dp1961
g3
(lp1962
sg6
(lp1963
(lp1964
I659
aI227
aI772
aI314
aassS'D:\\BaiduNetdiskDownload\\image1000\\000587.jpg'
p1965
(dp1966
g3
(lp1967
(lp1968
I443
aI300
aI485
aI352
aasg6
(lp1969
(lp1970
I1264
aI202
aI1365
aI299
aassS'D:\\BaiduNetdiskDownload\\image1000\\000186.jpg'
p1971
(dp1972
g3
(lp1973
(lp1974
I1204
aI621
aI1271
aI688
aasg6
(lp1975
(lp1976
I855
aI135
aI957
aI248
aassS'D:\\BaiduNetdiskDownload\\image1000\\000723.jpg'
p1977
(dp1978
g3
(lp1979
(lp1980
I474
aI142
aI746
aI426
aasg6
(lp1981
(lp1982
I796
aI311
aI1108
aI582
aassS'D:\\BaiduNetdiskDownload\\image1000\\000546.jpg'
p1983
(dp1984
g3
(lp1985
(lp1986
I323
aI489
aI386
aI552
aasg6
(lp1987
(lp1988
I561
aI104
aI655
aI202
aassS'D:\\BaiduNetdiskDownload\\image1000\\000047.jpg'
p1989
(dp1990
g3
(lp1991
(lp1992
I286
aI549
aI360
aI615
aasg6
(lp1993
(lp1994
I676
aI136
aI786
aI256
aassS'D:\\BaiduNetdiskDownload\\image1000\\000602.jpg'
p1995
(dp1996
g3
(lp1997
(lp1998
I1481
aI475
aI1523
aI521
aasg6
(lp1999
(lp2000
I661
aI268
aI730
aI337
aassS'D:\\BaiduNetdiskDownload\\image1000\\000221.jpg'
p2001
(dp2002
g3
(lp2003
sg6
(lp2004
(lp2005
I84
aI202
aI160
aI296
aassS'D:\\BaiduNetdiskDownload\\image1000\\000815.jpg'
p2006
(dp2007
g3
(lp2008
(lp2009
I1298
aI507
aI1348
aI553
aasg6
(lp2010
ssS'D:\\BaiduNetdiskDownload\\image1000\\000414.jpg'
p2011
(dp2012
g3
(lp2013
(lp2014
I1021
aI368
aI1140
aI490
aasg6
(lp2015
(lp2016
I1001
aI108
aI1111
aI4
aassS'D:\\BaiduNetdiskDownload\\image1000\\000303.jpg'
p2017
(dp2018
g3
(lp2019
(lp2020
I1050
aI653
aI1112
aI710
aasg6
(lp2021
(lp2022
I621
aI107
aI710
aI202
aassS'D:\\BaiduNetdiskDownload\\image1000\\000599.jpg'
p2023
(dp2024
g3
(lp2025
(lp2026
I998
aI644
aI1050
aI698
aasg6
(lp2027
(lp2028
I936
aI245
aI1047
aI362
aassS'D:\\BaiduNetdiskDownload\\image1000\\000330.jpg'
p2029
(dp2030
g3
(lp2031
(lp2032
I1007
aI676
aI1061
aI742
aasg6
(lp2033
(lp2034
I855
aI319
aI953
aI415
aassS'D:\\BaiduNetdiskDownload\\image1000\\000630.jpg'
p2035
(dp2036
g3
(lp2037
(lp2038
I613
aI569
aI658
aI616
aasg6
(lp2039
(lp2040
I804
aI288
aI876
aI358
aassS'D:\\BaiduNetdiskDownload\\image1000\\000792.jpg'
p2041
(dp2042
g3
(lp2043
sg6
(lp2044
(lp2045
I1713
aI216
aI1807
aI314
aassS'D:\\BaiduNetdiskDownload\\image1000\\000612.jpg'
p2046
(dp2047
g3
(lp2048
sg6
(lp2049
(lp2050
I438
aI311
aI533
aI395
aassS'D:\\BaiduNetdiskDownload\\image1000\\000989.jpg'
p2051
(dp2052
g3
(lp2053
(lp2054
I1208
aI492
aI1278
aI564
aasg6
(lp2055
(lp2056
I316
aI220
aI431
aI331
aassS'D:\\BaiduNetdiskDownload\\image1000\\000835.jpg'
p2057
(dp2058
g3
(lp2059
(lp2060
I1385
aI573
aI1436
aI624
aasg6
(lp2061
(lp2062
I717
aI246
aI831
aI343
aassS'D:\\BaiduNetdiskDownload\\image1000\\000801.jpg'
p2063
(dp2064
g3
(lp2065
(lp2066
I1281
aI444
aI1333
aI504
aasg6
(lp2067
(lp2068
I1374
aI230
aI1483
aI325
aassS'D:\\BaiduNetdiskDownload\\image1000\\000029.jpg'
p2069
(dp2070
g3
(lp2071
sg6
(lp2072
(lp2073
I609
aI243
aI683
aI323
aassS'D:\\BaiduNetdiskDownload\\image1000\\000768.jpg'
p2074
(dp2075
g3
(lp2076
(lp2077
I502
aI161
aI834
aI463
aasg6
(lp2078
ssS'D:\\BaiduNetdiskDownload\\image1000\\000900.jpg'
p2079
(dp2080
g3
(lp2081
(lp2082
I1063
aI199
aI1104
aI242
aasg6
(lp2083
ssS'D:\\BaiduNetdiskDownload\\image1000\\000053.jpg'
p2084
(dp2085
g3
(lp2086
(lp2087
I1523
aI533
aI1582
aI586
aasg6
(lp2088
(lp2089
I541
aI184
aI624
aI274
aassS'D:\\BaiduNetdiskDownload\\image1000\\000197.jpg'
p2090
(dp2091
g3
(lp2092
sg6
(lp2093
(lp2094
I564
aI242
aI649
aI322
aassS'D:\\BaiduNetdiskDownload\\image1000\\000204.jpg'
p2095
(dp2096
g3
(lp2097
(lp2098
I1462
aI458
aI1499
aI495
aasg6
(lp2099
ssS'D:\\BaiduNetdiskDownload\\image1000\\000436.jpg'
p2100
(dp2101
g3
(lp2102
(lp2103
I1219
aI507
aI1265
aI555
aasg6
(lp2104
(lp2105
I734
aI257
aI825
aI358
aassS'D:\\BaiduNetdiskDownload\\image1000\\000683.jpg'
p2106
(dp2107
g3
(lp2108
(lp2109
I919
aI490
aI971
aI541
aasg6
(lp2110
(lp2111
I1485
aI277
aI1592
aI377
aassS'D:\\BaiduNetdiskDownload\\image1000\\000149.jpg'
p2112
(dp2113
g3
(lp2114
(lp2115
I1323
aI457
aI1382
aI507
aasg6
(lp2116
(lp2117
I628
aI161
aI730
aI266
aassS'D:\\BaiduNetdiskDownload\\image1000\\000809.jpg'
p2118
(dp2119
g3
(lp2120
sg6
(lp2121
(lp2122
I451
aI245
aI547
aI326
aassS'D:\\BaiduNetdiskDownload\\image1000\\000228.jpg'
p2123
(dp2124
g3
(lp2125
(lp2126
I561
aI547
aI609
aI587
aasg6
(lp2127
(lp2128
I1371
aI234
aI1440
aI311
aassS'D:\\BaiduNetdiskDownload\\image1000\\000239.jpg'
p2129
(dp2130
g3
(lp2131
(lp2132
I1102
aI418
aI1139
aI452
aasg6
(lp2133
(lp2134
I1198
aI282
aI1254
aI342
aassS'D:\\BaiduNetdiskDownload\\image1000\\000270.jpg'
p2135
(dp2136
g3
(lp2137
(lp2138
I1143
aI340
aI1189
aI388
aasg6
(lp2139
(lp2140
I1219
aI159
aI1317
aI268
aassS'D:\\BaiduNetdiskDownload\\image1000\\000176.jpg'
p2141
(dp2142
g3
(lp2143
sg6
(lp2144
(lp2145
I277
aI300
aI338
aI371
aassS'D:\\BaiduNetdiskDownload\\image1000\\000516.jpg'
p2146
(dp2147
g3
(lp2148
(lp2149
I599
aI176
aI659
aI242
aasg6
(lp2150
(lp2151
I573
aI239
aI673
aI340
aassS'D:\\BaiduNetdiskDownload\\image1000\\000715.jpg'
p2152
(dp2153
g3
(lp2154
(lp2155
I808
aI673
aI852
aI719
aasg6
(lp2156
(lp2157
I1339
aI277
aI1398
aI352
aassS'D:\\BaiduNetdiskDownload\\image1000\\000729.jpg'
p2158
(dp2159
g3
(lp2160
(lp2161
I1202
aI506
aI1242
aI547
aasg6
(lp2162
ssS'D:\\BaiduNetdiskDownload\\image1000\\000887.jpg'
p2163
(dp2164
g3
(lp2165
(lp2166
I1644
aI343
aI1689
aI388
aasg6
(lp2167
(lp2168
I308
aI153
aI392
aI242
aassS'D:\\BaiduNetdiskDownload\\image1000\\000319.jpg'
p2169
(dp2170
g3
(lp2171
(lp2172
I919
aI550
aI973
aI592
aasg6
(lp2173
(lp2174
I732
aI316
aI818
aI415
aassS'D:\\BaiduNetdiskDownload\\image1000\\000260.jpg'
p2175
(dp2176
g3
(lp2177
sg6
(lp2178
(lp2179
I1406
aI156
aI1490
aI262
aassS'D:\\BaiduNetdiskDownload\\image1000\\000023.jpg'
p2180
(dp2181
g3
(lp2182
(lp2183
I914
aI243
aI971
aI317
aasg6
(lp2184
(lp2185
I1060
aI164
aI1178
aI293
aassS'D:\\BaiduNetdiskDownload\\image1000\\000647.jpg'
p2186
(dp2187
g3
(lp2188
(lp2189
I353
aI343
aI396
aI389
aasg6
(lp2190
(lp2191
I1323
aI194
aI1434
aI294
aassS'D:\\BaiduNetdiskDownload\\image1000\\000317.jpg'
p2192
(dp2193
g3
(lp2194
sg6
(lp2195
(lp2196
I832
aI319
aI919
aI426
aassS'D:\\BaiduNetdiskDownload\\image1000\\000360.jpg'
p2197
(dp2198
g3
(lp2199
(lp2200
I893
aI604
aI942
aI653
aasg6
(lp2201
(lp2202
I855
aI317
aI952
aI418
aassS'D:\\BaiduNetdiskDownload\\image1000\\000662.jpg'
p2203
(dp2204
g3
(lp2205
(lp2206
I1685
aI589
aI1758
aI665
aasg6
(lp2207
(lp2208
I894
aI9
aI1007
aI124
aassS'D:\\BaiduNetdiskDownload\\image1000\\000142.jpg'
p2209
(dp2210
g3
(lp2211
(lp2212
I1216
aI653
aI1265
aI708
aasg6
(lp2213
(lp2214
I402
aI182
aI486
aI265
aassS'D:\\BaiduNetdiskDownload\\image1000\\000292.jpg'
p2215
(dp2216
g3
(lp2217
(lp2218
I1060
aI658
aI1108
aI713
aasg6
(lp2219
(lp2220
I616
aI111
aI704
aI214
aassS'D:\\BaiduNetdiskDownload\\image1000\\000990.jpg'
p2221
(dp2222
g3
(lp2223
(lp2224
I510
aI747
aI575
aI803
aasg6
(lp2225
(lp2226
I638
aI279
aI727
aI375
aassS'D:\\BaiduNetdiskDownload\\image1000\\000383.jpg'
p2227
(dp2228
g3
(lp2229
(lp2230
I1777
aI368
aI1835
aI418
aasg6
(lp2231
(lp2232
I312
aI154
aI407
aI256
aassS'D:\\BaiduNetdiskDownload\\image1000\\000933.jpg'
p2233
(dp2234
g3
(lp2235
(lp2236
I888
aI256
aI1036
aI389
aasg6
(lp2237
(lp2238
I765
aI115
aI911
aI30
aassS'D:\\BaiduNetdiskDownload\\image1000\\000408.jpg'
p2239
(dp2240
g3
(lp2241
(lp2242
I215
aI222
aI268
aI276
aasg6
(lp2243
(lp2244
I1738
aI159
aI1844
aI276
aassS'D:\\BaiduNetdiskDownload\\image1000\\000924.jpg'
p2245
(dp2246
g3
(lp2247
(lp2248
I637
aI688
aI722
aI771
aasg6
(lp2249
ssS'D:\\BaiduNetdiskDownload\\image1000\\000370.jpg'
p2250
(dp2251
g3
(lp2252
sg6
(lp2253
(lp2254
I859
aI311
aI950
aI423
aassS'D:\\BaiduNetdiskDownload\\image1000\\000066.jpg'
p2255
(dp2256
g3
(lp2257
(lp2258
I1167
aI451
aI1211
aI495
aasg6
(lp2259
(lp2260
I1173
aI216
aI1253
aI302
aassS'D:\\BaiduNetdiskDownload\\image1000\\000766.jpg'
p2261
(dp2262
g3
(lp2263
(lp2264
I786
aI667
aI835
aI721
aasg6
(lp2265
(lp2266
I1275
aI223
aI1374
aI308
aassS'D:\\BaiduNetdiskDownload\\image1000\\000782.jpg'
p2267
(dp2268
g3
(lp2269
(lp2270
I1226
aI536
aI1289
aI613
aasg6
(lp2271
(lp2272
I599
aI243
aI692
aI340
aassS'D:\\BaiduNetdiskDownload\\image1000\\000059.jpg'
p2273
(dp2274
g3
(lp2275
(lp2276
I330
aI509
aI378
aI558
aasg6
(lp2277
(lp2278
I1239
aI205
aI1313
aI297
aassS'D:\\BaiduNetdiskDownload\\image1000\\000357.jpg'
p2279
(dp2280
g3
(lp2281
(lp2282
I983
aI348
aI1043
aI409
aasg6
(lp2283
(lp2284
I1181
aI214
aI1294
aI334
aassS'D:\\BaiduNetdiskDownload\\image1000\\000242.jpg'
p2285
(dp2286
g3
(lp2287
(lp2288
I451
aI570
aI485
aI615
aasg6
(lp2289
(lp2290
I1595
aI204
aI1668
aI288
aassS'D:\\BaiduNetdiskDownload\\image1000\\000972.jpg'
p2291
(dp2292
g3
(lp2293
(lp2294
I489
aI451
aI562
aI524
aasg6
(lp2295
ssS'D:\\BaiduNetdiskDownload\\image1000\\000439.jpg'
p2296
(dp2297
g3
(lp2298
(lp2299
I1400
aI515
aI1450
aI559
aasg6
(lp2300
(lp2301
I412
aI250
aI476
aI309
aassS'D:\\BaiduNetdiskDownload\\image1000\\000640.jpg'
p2302
(dp2303
g3
(lp2304
sg6
(lp2305
(lp2306
I1254
aI280
aI1368
aI391
aassS'D:\\BaiduNetdiskDownload\\image1000\\000189.jpg'
p2307
(dp2308
g3
(lp2309
(lp2310
I1472
aI417
aI1500
aI454
aasg6
(lp2311
ssS'D:\\BaiduNetdiskDownload\\image1000\\000525.jpg'
p2312
(dp2313
g3
(lp2314
(lp2315
I921
aI472
aI988
aI540
aasg6
(lp2316
(lp2317
I980
aI122
aI1101
aI254
aassS'D:\\BaiduNetdiskDownload\\image1000\\000461.jpg'
p2318
(dp2319
g3
(lp2320
(lp2321
I1503
aI684
aI1547
aI725
aasg6
(lp2322
(lp2323
I492
aI194
aI569
aI266
aassS'D:\\BaiduNetdiskDownload\\image1000\\000005.jpg'
p2324
(dp2325
g3
(lp2326
(lp2327
I1098
aI67
aI1195
aI153
aasg6
(lp2328
(lp2329
I881
aI82
aI1094
aI349
aassS'D:\\BaiduNetdiskDownload\\image1000\\000865.jpg'
p2330
(dp2331
g3
(lp2332
(lp2333
I832
aI395
aI894
aI452
aasg6
(lp2334
(lp2335
I925
aI271
aI1039
aI385
aassS'D:\\BaiduNetdiskDownload\\image1000\\000376.jpg'
p2336
(dp2337
g3
(lp2338
(lp2339
I1554
aI351
aI1613
aI408
aasg6
(lp2340
(lp2341
I542
aI369
aI627
aI472
aassS'D:\\BaiduNetdiskDownload\\image1000\\000139.jpg'
p2342
(dp2343
g3
(lp2344
(lp2345
I910
aI289
aI966
aI343
aasg6
(lp2346
(lp2347
I770
aI381
aI863
aI497
aassS'D:\\BaiduNetdiskDownload\\image1000\\000117.jpg'
p2348
(dp2349
g3
(lp2350
(lp2351
I260
aI587
aI306
aI633
aasg6
(lp2352
ssS'D:\\BaiduNetdiskDownload\\image1000\\000608.jpg'
p2353
(dp2354
g3
(lp2355
(lp2356
I1400
aI354
aI1445
aI405
aasg6
(lp2357
ssS'D:\\BaiduNetdiskDownload\\image1000\\000267.jpg'
p2358
(dp2359
g3
(lp2360
(lp2361
I701
aI421
aI748
aI481
aasg6
(lp2362
(lp2363
I686
aI194
aI791
aI306
aassS'D:\\BaiduNetdiskDownload\\image1000\\000249.jpg'
p2364
(dp2365
g3
(lp2366
(lp2367
I658
aI500
aI693
aI536
aasg6
(lp2368
(lp2369
I1106
aI225
aI1187
aI312
aassS'D:\\BaiduNetdiskDownload\\image1000\\000761.jpg'
p2370
(dp2371
g3
(lp2372
sg6
(lp2373
(lp2374
I1199
aI280
aI1281
aI358
aassS'D:\\BaiduNetdiskDownload\\image1000\\000904.jpg'
p2375
(dp2376
g3
(lp2377
sg6
(lp2378
(lp2379
I1305
aI164
aI1423
aI254
aassS'D:\\BaiduNetdiskDownload\\image1000\\000983.jpg'
p2380
(dp2381
g3
(lp2382
sg6
(lp2383
(lp2384
I1194
aI181
aI1334
aI282
aassS'D:\\BaiduNetdiskDownload\\image1000\\000624.jpg'
p2385
(dp2386
g3
(lp2387
(lp2388
I281
aI768
aI334
aI813
aasg6
(lp2389
(lp2390
I1340
aI239
aI1426
aI326
aassS'D:\\BaiduNetdiskDownload\\image1000\\000847.jpg'
p2391
(dp2392
g3
(lp2393
(lp2394
I1326
aI222
aI1368
aI265
aasg6
(lp2395
(lp2396
I1382
aI277
aI1478
aI371
aassS'D:\\BaiduNetdiskDownload\\image1000\\000001.jpg'
p2397
(dp2398
g3
(lp2399
(lp2400
I780
aI695
aI831
aI746
aasg6
(lp2401
(lp2402
I310
aI145
aI379
aI228
aassS'D:\\BaiduNetdiskDownload\\image1000\\000438.jpg'
p2403
(dp2404
g3
(lp2405
(lp2406
I859
aI133
aI911
aI182
aasg6
(lp2407
(lp2408
I537
aI210
aI623
aI302
aassS'D:\\BaiduNetdiskDownload\\image1000\\000055.jpg'
p2409
(dp2410
g3
(lp2411
(lp2412
I1315
aI513
aI1365
aI561
aasg6
(lp2413
(lp2414
I1749
aI213
aI1842
aI329
aassS'D:\\BaiduNetdiskDownload\\image1000\\000973.jpg'
p2415
(dp2416
g3
(lp2417
(lp2418
I223
aI259
aI279
aI314
aasg6
(lp2419
(lp2420
I1360
aI158
aI1464
aI251
aassS'D:\\BaiduNetdiskDownload\\image1000\\000705.jpg'
p2421
(dp2422
g3
(lp2423
(lp2424
I409
aI466
aI464
aI520
aasg6
(lp2425
(lp2426
I1247
aI207
aI1340
aI296
aassS'D:\\BaiduNetdiskDownload\\image1000\\000115.jpg'
p2427
(dp2428
g3
(lp2429
(lp2430
I1548
aI487
aI1595
aI541
aasg6
(lp2431
(lp2432
I579
aI136
aI658
aI219
aassS'D:\\BaiduNetdiskDownload\\image1000\\000282.jpg'
p2433
(dp2434
g3
(lp2435
(lp2436
I251
aI622
aI295
aI670
aasg6
(lp2437
(lp2438
I1344
aI231
aI1427
aI314
aassS'D:\\BaiduNetdiskDownload\\image1000\\000297.jpg'
p2439
(dp2440
g3
(lp2441
(lp2442
I602
aI616
aI649
aI668
aasg6
(lp2443
(lp2444
I1246
aI113
aI1327
aI217
aassS'D:\\BaiduNetdiskDownload\\image1000\\000563.jpg'
p2445
(dp2446
g3
(lp2447
(lp2448
I481
aI484
aI528
aI540
aasg6
(lp2449
ssS'D:\\BaiduNetdiskDownload\\image1000\\000183.jpg'
p2450
(dp2451
g3
(lp2452
(lp2453
I746
aI266
aI838
aI366
aasg6
(lp2454
(lp2455
I735
aI254
aI831
aI357
aassS'D:\\BaiduNetdiskDownload\\image1000\\000918.jpg'
p2456
(dp2457
g3
(lp2458
sg6
(lp2459
(lp2460
I1472
aI131
aI1583
aI239
aassS'D:\\BaiduNetdiskDownload\\image1000\\000130.jpg'
p2461
(dp2462
g3
(lp2463
(lp2464
I980
aI635
aI1042
aI691
aasg6
(lp2465
(lp2466
I1602
aI145
aI1692
aI245
aassS'D:\\BaiduNetdiskDownload\\image1000\\000636.jpg'
p2467
(dp2468
g3
(lp2469
(lp2470
I385
aI527
aI438
aI589
aasg6
(lp2471
(lp2472
I1313
aI161
aI1409
aI260
aassS'D:\\BaiduNetdiskDownload\\image1000\\000121.jpg'
p2473
(dp2474
g3
(lp2475
sg6
(lp2476
(lp2477
I1139
aI177
aI1267
aI314
aassS'D:\\BaiduNetdiskDownload\\image1000\\000168.jpg'
p2478
(dp2479
g3
(lp2480
(lp2481
I665
aI526
aI741
aI607
aasg6
(lp2482
(lp2483
I647
aI365
aI807
aI454
aassS'D:\\BaiduNetdiskDownload\\image1000\\000725.jpg'
p2484
(dp2485
g3
(lp2486
(lp2487
I1244
aI305
aI1291
aI355
aasg6
(lp2488
(lp2489
I1181
aI335
aI1256
aI420
aassS'D:\\BaiduNetdiskDownload\\image1000\\000302.jpg'
p2490
(dp2491
g3
(lp2492
(lp2493
I465
aI579
aI523
aI639
aasg6
(lp2494
(lp2495
I1104
aI270
aI1205
aI409
aassS'D:\\BaiduNetdiskDownload\\image1000\\000222.jpg'
p2496
(dp2497
g3
(lp2498
sg6
(lp2499
(lp2500
I528
aI279
aI607
aI363
aassS'D:\\BaiduNetdiskDownload\\image1000\\000888.jpg'
p2501
(dp2502
g3
(lp2503
(lp2504
I1573
aI441
aI1621
aI486
aasg6
(lp2505
(lp2506
I440
aI151
aI531
aI227
aassS'D:\\BaiduNetdiskDownload\\image1000\\000320.jpg'
p2507
(dp2508
g3
(lp2509
(lp2510
I1007
aI698
aI1059
aI760
aasg6
(lp2511
(lp2512
I836
aI316
aI931
aI415
aassS'D:\\BaiduNetdiskDownload\\image1000\\000415.jpg'
p2513
(dp2514
g3
(lp2515
(lp2516
I1406
aI389
aI1461
aI447
aasg6
(lp2517
(lp2518
I573
aI222
aI666
aI317
aassS'D:\\BaiduNetdiskDownload\\image1000\\000731.jpg'
p2519
(dp2520
g3
(lp2521
(lp2522
I1087
aI678
aI1135
aI727
aasg6
(lp2523
(lp2524
I308
aI230
aI395
aI317
aassS'D:\\BaiduNetdiskDownload\\image1000\\000470.jpg'
p2525
(dp2526
g3
(lp2527
sg6
(lp2528
(lp2529
I603
aI164
aI659
aI256
aassS'D:\\BaiduNetdiskDownload\\image1000\\000491.jpg'
p2530
(dp2531
g3
(lp2532
(lp2533
I775
aI101
aI834
aI156
aasg6
(lp2534
(lp2535
I558
aI236
aI661
aI343
aassS'D:\\BaiduNetdiskDownload\\image1000\\000555.jpg'
p2536
(dp2537
g3
(lp2538
(lp2539
I762
aI335
aI815
aI403
aasg6
(lp2540
(lp2541
I706
aI176
aI818
aI320
aassS'D:\\BaiduNetdiskDownload\\image1000\\000923.jpg'
p2542
(dp2543
g3
(lp2544
(lp2545
I789
aI592
aI849
aI642
aasg6
(lp2546
(lp2547
I1330
aI240
aI1413
aI325
aassS'D:\\BaiduNetdiskDownload\\image1000\\000547.jpg'
p2548
(dp2549
g3
(lp2550
(lp2551
I704
aI834
aI759
aI891
aasg6
(lp2552
ssS'D:\\BaiduNetdiskDownload\\image1000\\000071.jpg'
p2553
(dp2554
g3
(lp2555
(lp2556
I1258
aI553
aI1319
aI599
aasg6
(lp2557
(lp2558
I1166
aI211
aI1242
aI296
aassS'D:\\BaiduNetdiskDownload\\image1000\\000485.jpg'
p2559
(dp2560
g3
(lp2561
(lp2562
I1223
aI512
aI1280
aI564
aasg6
(lp2563
(lp2564
I1204
aI248
aI1275
aI328
aassS'D:\\BaiduNetdiskDownload\\image1000\\000396.jpg'
p2565
(dp2566
g3
(lp2567
(lp2568
I737
aI211
aI776
aI254
aasg6
(lp2569
(lp2570
I696
aI257
aI780
aI346
aassS'D:\\BaiduNetdiskDownload\\image1000\\000255.jpg'
p2571
(dp2572
g3
(lp2573
(lp2574
I652
aI609
aI697
aI655
aasg6
(lp2575
(lp2576
I1119
aI210
aI1198
aI300
aassS'D:\\BaiduNetdiskDownload\\image1000\\000232.jpg'
p2577
(dp2578
g3
(lp2579
(lp2580
I436
aI566
aI472
aI604
aasg6
(lp2581
ssS'D:\\BaiduNetdiskDownload\\image1000\\000146.jpg'
p2582
(dp2583
g3
(lp2584
(lp2585
I1123
aI737
aI1185
aI813
aasg6
(lp2586
(lp2587
I630
aI171
aI714
aI263
aassS'D:\\BaiduNetdiskDownload\\image1000\\000157.jpg'
p2588
(dp2589
g3
(lp2590
sg6
(lp2591
(lp2592
I455
aI282
aI551
aI394
aassS'D:\\BaiduNetdiskDownload\\image1000\\000969.jpg'
p2593
(dp2594
g3
(lp2595
sg6
(lp2596
(lp2597
I1102
aI289
aI1205
aI403
aassS'D:\\BaiduNetdiskDownload\\image1000\\000216.jpg'
p2598
(dp2599
g3
(lp2600
(lp2601
I1460
aI570
aI1503
aI607
aasg6
(lp2602
(lp2603
I524
aI265
aI582
aI331
aassS'D:\\BaiduNetdiskDownload\\image1000\\000194.jpg'
p2604
(dp2605
g3
(lp2606
(lp2607
I814
aI676
aI867
aI734
aasg6
(lp2608
(lp2609
I215
aI128
aI338
aI243
aassS'D:\\BaiduNetdiskDownload\\image1000\\000628.jpg'
p2610
(dp2611
g3
(lp2612
(lp2613
I728
aI461
aI783
aI520
aasg6
(lp2614
(lp2615
I628
aI223
aI744
aI337
aassS'D:\\BaiduNetdiskDownload\\image1000\\000507.jpg'
p2616
(dp2617
g3
(lp2618
(lp2619
I662
aI204
aI1024
aI533
aasg6
(lp2620
ssS'D:\\BaiduNetdiskDownload\\image1000\\000657.jpg'
p2621
(dp2622
g3
(lp2623
(lp2624
I1716
aI598
aI1782
aI671
aasg6
(lp2625
(lp2626
I888
aI19
aI1018
aI133
aassS'D:\\BaiduNetdiskDownload\\image1000\\000793.jpg'
p2627
(dp2628
g3
(lp2629
sg6
(lp2630
(lp2631
I1478
aI208
aI1566
aI312
aassS'D:\\BaiduNetdiskDownload\\image1000\\000010.jpg'
p2632
(dp2633
g3
(lp2634
(lp2635
I1492
aI593
aI1538
aI647
aasg6
(lp2636
(lp2637
I1589
aI32
aI1673
aI119
aassS'D:\\BaiduNetdiskDownload\\image1000\\000448.jpg'
p2638
(dp2639
g3
(lp2640
sg6
(lp2641
(lp2642
I468
aI196
aI555
aI297
aassS'D:\\BaiduNetdiskDownload\\image1000\\000401.jpg'
p2643
(dp2644
g3
(lp2645
sg6
(lp2646
(lp2647
I322
aI242
aI416
aI348
aassS'D:\\BaiduNetdiskDownload\\image1000\\000970.jpg'
p2648
(dp2649
g3
(lp2650
(lp2651
I1040
aI227
aI1092
aI274
aasg6
(lp2652
(lp2653
I1149
aI171
aI1277
aI299
aassS'D:\\BaiduNetdiskDownload\\image1000\\000694.jpg'
p2654
(dp2655
g3
(lp2656
(lp2657
I694
aI403
aI734
aI451
aasg6
(lp2658
ssS'D:\\BaiduNetdiskDownload\\image1000\\000106.jpg'
p2659
(dp2660
g3
(lp2661
(lp2662
I938
aI276
aI1136
aI452
aasg6
(lp2663
(lp2664
I780
aI174
aI1185
aI395
aassS'D:\\BaiduNetdiskDownload\\image1000\\000291.jpg'
p2665
(dp2666
g3
(lp2667
sg6
(lp2668
(lp2669
I1406
aI234
aI1475
aI314
aassS'D:\\BaiduNetdiskDownload\\image1000\\000773.jpg'
p2670
(dp2671
g3
(lp2672
(lp2673
I677
aI671
aI1046
aI978
aasg6
(lp2674
ssS'D:\\BaiduNetdiskDownload\\image1000\\000811.jpg'
p2675
(dp2676
g3
(lp2677
(lp2678
I978
aI498
aI1033
aI546
aasg6
(lp2679
(lp2680
I1153
aI170
aI1258
aI262
aassS'D:\\BaiduNetdiskDownload\\image1000\\000093.jpg'
p2681
(dp2682
g3
(lp2683
(lp2684
I1274
aI329
aI1309
aI363
aasg6
(lp2685
ssS'D:\\BaiduNetdiskDownload\\image1000\\000939.jpg'
p2686
(dp2687
g3
(lp2688
sg6
(lp2689
(lp2690
I1251
aI185
aI1340
aI282
aassS'D:\\BaiduNetdiskDownload\\image1000\\000727.jpg'
p2691
(dp2692
g3
(lp2693
(lp2694
I1060
aI358
aI1121
aI412
aasg6
(lp2695
(lp2696
I1198
aI352
aI1294
aI447
aassS'D:\\BaiduNetdiskDownload\\image1000\\000127.jpg'
p2697
(dp2698
g3
(lp2699
(lp2700
I426
aI351
aI526
aI451
aasg6
(lp2701
(lp2702
I987
aI23
aI1133
aI179
aassS'D:\\BaiduNetdiskDownload\\image1000\\000311.jpg'
p2703
(dp2704
g3
(lp2705
(lp2706
I842
aI279
aI891
aI334
aasg6
(lp2707
(lp2708
I1040
aI194
aI1185
aI349
aassS'D:\\BaiduNetdiskDownload\\image1000\\000011.jpg'
p2709
(dp2710
g3
(lp2711
(lp2712
I549
aI199
aI596
aI243
aasg6
(lp2713
(lp2714
I534
aI265
aI603
aI340
aassS'D:\\BaiduNetdiskDownload\\image1000\\000300.jpg'
p2715
(dp2716
g3
(lp2717
(lp2718
I924
aI530
aI986
aI592
aasg6
(lp2719
(lp2720
I824
aI320
aI915
aI426
aassS'D:\\BaiduNetdiskDownload\\image1000\\000775.jpg'
p2721
(dp2722
g3
(lp2723
(lp2724
I1160
aI148
aI1254
aI243
aasg6
(lp2725
(lp2726
I706
aI311
aI831
aI466
aassS'D:\\BaiduNetdiskDownload\\image1000\\000090.jpg'
p2727
(dp2728
g3
(lp2729
sg6
(lp2730
(lp2731
I1320
aI227
aI1410
aI319
aassS'D:\\BaiduNetdiskDownload\\image1000\\000235.jpg'
p2732
(dp2733
g3
(lp2734
(lp2735
I1144
aI403
aI1177
aI435
aasg6
(lp2736
(lp2737
I1227
aI283
aI1272
aI342
aassS'D:\\BaiduNetdiskDownload\\image1000\\000807.jpg'
p2738
(dp2739
g3
(lp2740
(lp2741
I1665
aI547
aI1721
aI598
aasg6
(lp2742
(lp2743
I324
aI233
aI448
aI322
aassS'D:\\BaiduNetdiskDownload\\image1000\\000523.jpg'
p2744
(dp2745
g3
(lp2746
sg6
(lp2747
(lp2748
I367
aI150
aI448
aI240
aassS'D:\\BaiduNetdiskDownload\\image1000\\000445.jpg'
p2749
(dp2750
g3
(lp2751
sg6
(lp2752
(lp2753
I499
aI214
aI571
aI293
aassS'D:\\BaiduNetdiskDownload\\image1000\\000405.jpg'
p2754
(dp2755
g3
(lp2756
(lp2757
I1104
aI538
aI1167
aI604
aasg6
(lp2758
(lp2759
I412
aI154
aI495
aI274
aassS'D:\\BaiduNetdiskDownload\\image1000\\000827.jpg'
p2760
(dp2761
g3
(lp2762
(lp2763
I1585
aI599
aI1652
aI648
aasg6
(lp2764
(lp2765
I658
aI242
aI748
aI314
aassS'D:\\BaiduNetdiskDownload\\image1000\\000167.jpg'
p2766
(dp2767
g3
(lp2768
(lp2769
I908
aI492
aI950
aI540
aasg6
(lp2770
(lp2771
I520
aI262
aI589
aI339
aassS'D:\\BaiduNetdiskDownload\\image1000\\000852.jpg'
p2772
(dp2773
g3
(lp2774
(lp2775
I1111
aI619
aI1178
aI679
aasg6
(lp2776
(lp2777
I227
aI234
aI326
aI331
aassS'D:\\BaiduNetdiskDownload\\image1000\\000692.jpg'
p2778
(dp2779
g3
(lp2780
(lp2781
I753
aI429
aI800
aI477
aasg6
(lp2782
ssS'D:\\BaiduNetdiskDownload\\image1000\\000870.jpg'
p2783
(dp2784
g3
(lp2785
(lp2786
I1142
aI541
aI1198
aI596
aasg6
(lp2787
ssS'D:\\BaiduNetdiskDownload\\image1000\\000275.jpg'
p2788
(dp2789
g3
(lp2790
(lp2791
I161
aI538
aI196
aI578
aasg6
(lp2792
(lp2793
I1296
aI240
aI1355
aI317
aassS'D:\\BaiduNetdiskDownload\\image1000\\000076.jpg'
p2794
(dp2795
g3
(lp2796
(lp2797
I1280
aI331
aI1317
aI383
aasg6
(lp2798
ssS'D:\\BaiduNetdiskDownload\\image1000\\000286.jpg'
p2799
(dp2800
g3
(lp2801
(lp2802
I786
aI403
aI831
aI449
aasg6
(lp2803
(lp2804
I720
aI271
aI790
aI352
aassS'D:\\BaiduNetdiskDownload\\image1000\\000118.jpg'
p2805
(dp2806
g3
(lp2807
(lp2808
I1026
aI480
aI1108
aI570
aasg6
(lp2809
(lp2810
I970
aI167
aI1108
aI9
aassS'D:\\BaiduNetdiskDownload\\image1000\\000151.jpg'
p2811
(dp2812
g3
(lp2813
sg6
(lp2814
(lp2815
I655
aI316
aI751
aI411
aassS'D:\\BaiduNetdiskDownload\\image1000\\000192.jpg'
p2816
(dp2817
g3
(lp2818
(lp2819
I1528
aI461
aI1581
aI509
aasg6
(lp2820
(lp2821
I573
aI243
aI701
aI378
aassS'D:\\BaiduNetdiskDownload\\image1000\\000187.jpg'
p2822
(dp2823
g3
(lp2824
(lp2825
I710
aI366
aI780
aI437
aasg6
(lp2826
(lp2827
I769
aI194
aI884
aI325
aassS'D:\\BaiduNetdiskDownload\\image1000\\000350.jpg'
p2828
(dp2829
g3
(lp2830
(lp2831
I1758
aI590
aI1810
aI638
aasg6
(lp2832
(lp2833
I495
aI142
aI578
aI228
aassS'D:\\BaiduNetdiskDownload\\image1000\\000661.jpg'
p2834
(dp2835
g3
(lp2836
(lp2837
I1752
aI882
aI1893
aI1010
aasg6
(lp2838
ssS'D:\\BaiduNetdiskDownload\\image1000\\000622.jpg'
p2839
(dp2840
g3
(lp2841
(lp2842
I533
aI578
aI580
aI624
aasg6
(lp2843
(lp2844
I810
aI300
aI888
aI380
aassS'D:\\BaiduNetdiskDownload\\image1000\\000567.jpg'
p2845
(dp2846
g3
(lp2847
sg6
(lp2848
(lp2849
I1495
aI194
aI1571
aI279
aassS'D:\\BaiduNetdiskDownload\\image1000\\000431.jpg'
p2850
(dp2851
g3
(lp2852
(lp2853
I1384
aI400
aI1419
aI449
aasg6
(lp2854
(lp2855
I212
aI251
aI278
aI317
aassS'D:\\BaiduNetdiskDownload\\image1000\\000326.jpg'
p2856
(dp2857
g3
(lp2858
(lp2859
I196
aI234
aI239
aI282
aasg6
(lp2860
(lp2861
I1295
aI220
aI1388
aI322
aassS'D:\\BaiduNetdiskDownload\\image1000\\000530.jpg'
p2862
(dp2863
g3
(lp2864
sg6
(lp2865
(lp2866
I215
aI259
aI303
aI357
aassS'D:\\BaiduNetdiskDownload\\image1000\\000188.jpg'
p2867
(dp2868
g3
(lp2869
(lp2870
I358
aI345
aI402
aI401
aasg6
(lp2871
ssS'D:\\BaiduNetdiskDownload\\image1000\\000598.jpg'
p2872
(dp2873
g3
(lp2874
(lp2875
I1623
aI630
aI1678
aI682
aasg6
(lp2876
(lp2877
I541
aI240
aI631
aI328
aassS'D:\\BaiduNetdiskDownload\\image1000\\000997.jpg'
p2878
(dp2879
g3
(lp2880
(lp2881
I1167
aI242
aI1403
aI475
aasg6
(lp2882
(lp2883
I562
aI243
aI1143
aI805
aassS'D:\\BaiduNetdiskDownload\\image1000\\000529.jpg'
p2884
(dp2885
g3
(lp2886
sg6
(lp2887
(lp2888
I382
aI164
aI469
aI270
aassS'D:\\BaiduNetdiskDownload\\image1000\\000912.jpg'
p2889
(dp2890
g3
(lp2891
(lp2892
I1393
aI332
aI1451
aI394
aasg6
(lp2893
(lp2894
I727
aI250
aI832
aI358
aassS'D:\\BaiduNetdiskDownload\\image1000\\000261.jpg'
p2895
(dp2896
g3
(lp2897
(lp2898
I540
aI561
aI590
aI616
aasg6
(lp2899
(lp2900
I706
aI196
aI791
aI302
aassS'D:\\BaiduNetdiskDownload\\image1000\\000868.jpg'
p2901
(dp2902
g3
(lp2903
(lp2904
I853
aI181
aI901
aI240
aasg6
(lp2905
(lp2906
I438
aI153
aI533
aI266
aassS'D:\\BaiduNetdiskDownload\\image1000\\000033.jpg'
p2907
(dp2908
g3
(lp2909
(lp2910
I1385
aI717
aI1437
aI773
aasg6
(lp2911
ssS'D:\\BaiduNetdiskDownload\\image1000\\000367.jpg'
p2912
(dp2913
g3
(lp2914
sg6
(lp2915
(lp2916
I572
aI196
aI642
aI279
aassS'D:\\BaiduNetdiskDownload\\image1000\\000413.jpg'
p2917
(dp2918
g3
(lp2919
sg6
(lp2920
(lp2921
I1167
aI228
aI1244
aI320
aassS'D:\\BaiduNetdiskDownload\\image1000\\000618.jpg'
p2922
(dp2923
g3
(lp2924
(lp2925
I832
aI357
aI887
aI414
aasg6
(lp2926
(lp2927
I817
aI294
aI914
aI377
aassS'D:\\BaiduNetdiskDownload\\image1000\\000343.jpg'
p2928
(dp2929
g3
(lp2930
(lp2931
I1351
aI242
aI1391
aI297
aasg6
(lp2932
(lp2933
I520
aI220
aI616
aI334
aassS'D:\\BaiduNetdiskDownload\\image1000\\000344.jpg'
p2934
(dp2935
g3
(lp2936
(lp2937
I1592
aI590
aI1655
aI647
aasg6
(lp2938
(lp2939
I579
aI130
aI659
aI200
aassS'D:\\BaiduNetdiskDownload\\image1000\\000592.jpg'
p2940
(dp2941
g3
(lp2942
(lp2943
I1403
aI555
aI1451
aI599
aasg6
(lp2944
(lp2945
I433
aI291
aI504
aI369
aassS'D:\\BaiduNetdiskDownload\\image1000\\000041.jpg'
p2946
(dp2947
g3
(lp2948
(lp2949
I1408
aI653
aI1460
aI701
aasg6
(lp2950
ssS'D:\\BaiduNetdiskDownload\\image1000\\000212.jpg'
p2951
(dp2952
g3
(lp2953
(lp2954
I625
aI451
aI670
aI493
aasg6
(lp2955
(lp2956
I1242
aI219
aI1302
aI302
aassS'D:\\BaiduNetdiskDownload\\image1000\\000203.jpg'
p2957
(dp2958
g3
(lp2959
(lp2960
I1483
aI507
aI1524
aI552
aasg6
(lp2961
(lp2962
I572
aI268
aI640
aI346
aassS'D:\\BaiduNetdiskDownload\\image1000\\000028.jpg'
p2963
(dp2964
g3
(lp2965
(lp2966
I1296
aI533
aI1368
aI604
aasg6
(lp2967
ssS'D:\\BaiduNetdiskDownload\\image1000\\000061.jpg'
p2968
(dp2969
g3
(lp2970
sg6
(lp2971
(lp2972
I490
aI297
aI564
aI385
aassS'D:\\BaiduNetdiskDownload\\image1000\\000532.jpg'
p2973
(dp2974
g3
(lp2975
(lp2976
I713
aI191
aI808
aI279
aasg6
(lp2977
ssS'D:\\BaiduNetdiskDownload\\image1000\\000803.jpg'
p2978
(dp2979
g3
(lp2980
sg6
(lp2981
(lp2982
I514
aI256
aI621
aI351
aassS'D:\\BaiduNetdiskDownload\\image1000\\000700.jpg'
p2983
(dp2984
g3
(lp2985
(lp2986
I1208
aI717
aI1260
aI774
aasg6
(lp2987
(lp2988
I694
aI263
aI779
aI339
aassS'D:\\BaiduNetdiskDownload\\image1000\\000651.jpg'
p2989
(dp2990
g3
(lp2991
sg6
(lp2992
(lp2993
I1057
aI185
aI1171
aI293
aassS'D:\\BaiduNetdiskDownload\\image1000\\000682.jpg'
p2994
(dp2995
g3
(lp2996
(lp2997
I1280
aI253
aI1339
aI320
aasg6
(lp2998
(lp2999
I430
aI177
aI535
aI294
aassS'D:\\BaiduNetdiskDownload\\image1000\\000676.jpg'
p3000
(dp3001
g3
(lp3002
(lp3003
I1225
aI555
aI1265
aI598
aasg6
(lp3004
(lp3005
I1156
aI314
aI1247
aI431
aassS'D:\\BaiduNetdiskDownload\\image1000\\000836.jpg'
p3006
(dp3007
g3
(lp3008
(lp3009
I1011
aI326
aI1052
aI377
aasg6
(lp3010
ssS'D:\\BaiduNetdiskDownload\\image1000\\000760.jpg'
p3011
(dp3012
g3
(lp3013
(lp3014
I585
aI613
aI663
aI702
aasg6
(lp3015
(lp3016
I572
aI199
aI694
aI332
aassS'D:\\BaiduNetdiskDownload\\image1000\\000685.jpg'
p3017
(dp3018
g3
(lp3019
(lp3020
I551
aI174
aI617
aI230
aasg6
(lp3021
(lp3022
I590
aI280
aI704
aI395
aassS'D:\\BaiduNetdiskDownload\\image1000\\000964.jpg'
p3023
(dp3024
g3
(lp3025
sg6
(lp3026
(lp3027
I956
aI101
aI1097
aI216
aassS'D:\\BaiduNetdiskDownload\\image1000\\000931.jpg'
p3028
(dp3029
g3
(lp3030
(lp3031
I966
aI460
aI1069
aI584
aasg6
(lp3032
ssS'D:\\BaiduNetdiskDownload\\image1000\\000574.jpg'
p3033
(dp3034
g3
(lp3035
(lp3036
I1322
aI487
aI1365
aI546
aasg6
(lp3037
(lp3038
I1298
aI305
aI1384
aI398
aassS'D:\\BaiduNetdiskDownload\\image1000\\000790.jpg'
p3039
(dp3040
g3
(lp3041
(lp3042
I271
aI438
aI319
aI489
aasg6
(lp3043
ssS'D:\\BaiduNetdiskDownload\\image1000\\000140.jpg'
p3044
(dp3045
g3
(lp3046
(lp3047
I1085
aI780
aI1137
aI840
aasg6
(lp3048
(lp3049
I53
aI196
aI154
aI289
aassS'D:\\BaiduNetdiskDownload\\image1000\\000837.jpg'
p3050
(dp3051
g3
(lp3052
(lp3053
I628
aI363
aI669
aI408
aasg6
(lp3054
ssS'D:\\BaiduNetdiskDownload\\image1000\\000638.jpg'
p3055
(dp3056
g3
(lp3057
(lp3058
I1184
aI202
aI1236
aI253
aasg6
(lp3059
(lp3060
I1177
aI303
aI1263
aI394
aassS'D:\\BaiduNetdiskDownload\\image1000\\000475.jpg'
p3061
(dp3062
g3
(lp3063
(lp3064
I770
aI651
aI824
aI698
aasg6
(lp3065
(lp3066
I1243
aI228
aI1312
aI306
aassS'D:\\BaiduNetdiskDownload\\image1000\\000046.jpg'
p3067
(dp3068
g3
(lp3069
(lp3070
I1399
aI569
aI1454
aI619
aasg6
(lp3071
ssS'D:\\BaiduNetdiskDownload\\image1000\\000763.jpg'
p3072
(dp3073
g3
(lp3074
sg6
(lp3075
(lp3076
I721
aI351
aI787
aI417
aassS'D:\\BaiduNetdiskDownload\\image1000\\000403.jpg'
p3077
(dp3078
g3
(lp3079
(lp3080
I1091
aI145
aI1152
aI213
aasg6
(lp3081
(lp3082
I787
aI202
aI887
aI328
aassS'D:\\BaiduNetdiskDownload\\image1000\\000829.jpg'
p3083
(dp3084
g3
(lp3085
(lp3086
I1699
aI302
aI1746
aI355
aasg6
(lp3087
(lp3088
I540
aI236
aI648
aI323
aassS'D:\\BaiduNetdiskDownload\\image1000\\000581.jpg'
p3089
(dp3090
g3
(lp3091
(lp3092
I1101
aI521
aI1154
aI575
aasg6
(lp3093
ssS'D:\\BaiduNetdiskDownload\\image1000\\000950.jpg'
p3094
(dp3095
g3
(lp3096
sg6
(lp3097
(lp3098
I1287
aI211
aI1381
aI326
aassS'D:\\BaiduNetdiskDownload\\image1000\\000030.jpg'
p3099
(dp3100
g3
(lp3101
(lp3102
I1042
aI455
aI1091
aI503
aasg6
(lp3103
(lp3104
I1191
aI250
aI1277
aI360
aassS'D:\\BaiduNetdiskDownload\\image1000\\000086.jpg'
p3105
(dp3106
g3
(lp3107
(lp3108
I925
aI619
aI977
aI664
aasg6
(lp3109
ssS'D:\\BaiduNetdiskDownload\\image1000\\000595.jpg'
p3110
(dp3111
g3
(lp3112
(lp3113
I1530
aI612
aI1576
aI656
aasg6
(lp3114
(lp3115
I506
aI257
aI587
aI334
aassS'D:\\BaiduNetdiskDownload\\image1000\\000607.jpg'
p3116
(dp3117
g3
(lp3118
(lp3119
I772
aI331
aI842
aI391
aasg6
(lp3120
(lp3121
I713
aI210
aI832
aI346
aassS'D:\\BaiduNetdiskDownload\\image1000\\000976.jpg'
p3122
(dp3123
g3
(lp3124
(lp3125
I593
aI326
aI648
aI372
aasg6
(lp3126
(lp3127
I1330
aI251
aI1457
aI355
aassS'D:\\BaiduNetdiskDownload\\image1000\\000205.jpg'
p3128
(dp3129
g3
(lp3130
(lp3131
I1431
aI276
aI1481
aI329
aasg6
(lp3132
ssS'D:\\BaiduNetdiskDownload\\image1000\\000534.jpg'
p3133
(dp3134
g3
(lp3135
(lp3136
I1517
aI363
aI1572
aI414
aasg6
(lp3137
(lp3138
I382
aI138
aI481
aI231
aassS'D:\\BaiduNetdiskDownload\\image1000\\000867.jpg'
p3139
(dp3140
g3
(lp3141
(lp3142
I960
aI329
aI1005
aI380
aasg6
(lp3143
ssS'D:\\BaiduNetdiskDownload\\image1000\\000814.jpg'
p3144
(dp3145
g3
(lp3146
(lp3147
I1603
aI553
aI1664
aI604
aasg6
(lp3148
(lp3149
I429
aI259
aI534
aI343
aassS'D:\\BaiduNetdiskDownload\\image1000\\000198.jpg'
p3150
(dp3151
g3
(lp3152
(lp3153
I1520
aI406
aI1564
aI444
aasg6
(lp3154
ssS'D:\\BaiduNetdiskDownload\\image1000\\000101.jpg'
p3155
(dp3156
g3
(lp3157
sg6
(lp3158
(lp3159
I1294
aI234
aI1367
aI322
aassS'D:\\BaiduNetdiskDownload\\image1000\\000382.jpg'
p3160
(dp3161
g3
(lp3162
(lp3163
I1599
aI351
aI1648
aI400
aasg6
(lp3164
(lp3165
I659
aI231
aI732
aI305
aassS'D:\\BaiduNetdiskDownload\\image1000\\000356.jpg'
p3166
(dp3167
g3
(lp3168
(lp3169
I1019
aI449
aI1077
aI498
aasg6
(lp3170
(lp3171
I552
aI246
aI656
aI352
aassS'D:\\BaiduNetdiskDownload\\image1000\\000369.jpg'
p3172
(dp3173
g3
(lp3174
(lp3175
I1720
aI495
aI1775
aI543
aasg6
(lp3176
(lp3177
I313
aI151
aI400
aI253
aassS'D:\\BaiduNetdiskDownload\\image1000\\000474.jpg'
p3178
(dp3179
g3
(lp3180
sg6
(lp3181
(lp3182
I686
aI239
aI763
aI322
aassS'D:\\BaiduNetdiskDownload\\image1000\\000522.jpg'
p3183
(dp3184
g3
(lp3185
(lp3186
I565
aI210
aI625
aI263
aasg6
(lp3187
(lp3188
I564
aI246
aI679
aI343
aassS'D:\\BaiduNetdiskDownload\\image1000\\000018.jpg'
p3189
(dp3190
g3
(lp3191
(lp3192
I905
aI564
aI970
aI635
aasg6
(lp3193
ssS'D:\\BaiduNetdiskDownload\\image1000\\000500.jpg'
p3194
(dp3195
g3
(lp3196
(lp3197
I1443
aI549
aI1505
aI615
aasg6
(lp3198
(lp3199
I694
aI231
aI817
aI369
aassS'D:\\BaiduNetdiskDownload\\image1000\\000806.jpg'
p3200
(dp3201
g3
(lp3202
(lp3203
I1631
aI429
aI1678
aI478
aasg6
(lp3204
(lp3205
I263
aI217
aI343
aI308
aassS'D:\\BaiduNetdiskDownload\\image1000\\000444.jpg'
p3206
(dp3207
g3
(lp3208
sg6
(lp3209
(lp3210
I486
aI205
aI571
aI288
aassS'D:\\BaiduNetdiskDownload\\image1000\\000070.jpg'
p3211
(dp3212
g3
(lp3213
(lp3214
I1147
aI477
aI1198
aI527
aasg6
(lp3215
(lp3216
I673
aI211
aI735
aI277
aassS'D:\\BaiduNetdiskDownload\\image1000\\000006.jpg'
p3217
(dp3218
g3
(lp3219
(lp3220
I485
aI628
aI541
aI694
aasg6
(lp3221
(lp3222
I1129
aI250
aI1243
aI374
aassS'D:\\BaiduNetdiskDownload\\image1000\\000851.jpg'
p3223
(dp3224
g3
(lp3225
(lp3226
I1377
aI628
aI1440
aI684
aasg6
(lp3227
ssS'D:\\BaiduNetdiskDownload\\image1000\\000243.jpg'
p3228
(dp3229
g3
(lp3230
(lp3231
I796
aI512
aI845
aI561
aasg6
(lp3232
(lp3233
I652
aI276
aI731
aI365
aassS'D:\\BaiduNetdiskDownload\\image1000\\000693.jpg'
p3234
(dp3235
g3
(lp3236
(lp3237
I832
aI740
aI879
aI794
aasg6
(lp3238
(lp3239
I1263
aI223
aI1341
aI299
aassS'D:\\BaiduNetdiskDownload\\image1000\\000170.jpg'
p3240
(dp3241
g3
(lp3242
(lp3243
I1489
aI421
aI1533
aI472
aasg6
(lp3244
(lp3245
I611
aI297
aI699
aI380
aassS'D:\\BaiduNetdiskDownload\\image1000\\000733.jpg'
p3246
(dp3247
g3
(lp3248
(lp3249
I1550
aI351
aI1586
aI401
aasg6
(lp3250
ssS'D:\\BaiduNetdiskDownload\\image1000\\000617.jpg'
p3251
(dp3252
g3
(lp3253
(lp3254
I191
aI676
aI243
aI730
aasg6
(lp3255
ssS'D:\\BaiduNetdiskDownload\\image1000\\000753.jpg'
p3256
(dp3257
g3
(lp3258
(lp3259
I1277
aI563
aI1346
aI624
aasg6
(lp3260
(lp3261
I582
aI184
aI693
aI286
aassS'D:\\BaiduNetdiskDownload\\image1000\\000938.jpg'
p3262
(dp3263
g3
(lp3264
(lp3265
I358
aI214
aI419
aI271
aasg6
(lp3266
(lp3267
I1340
aI142
aI1426
aI246
aassS'D:\\BaiduNetdiskDownload\\image1000\\000177.jpg'
p3268
(dp3269
g3
(lp3270
(lp3271
I336
aI326
aI388
aI371
aasg6
(lp3272
ssS'D:\\BaiduNetdiskDownload\\image1000\\000366.jpg'
p3273
(dp3274
g3
(lp3275
(lp3276
I941
aI598
aI997
aI647
aasg6
(lp3277
(lp3278
I855
aI322
aI948
aI421
aassS'D:\\BaiduNetdiskDownload\\image1000\\000293.jpg'
p3279
(dp3280
g3
(lp3281
sg6
(lp3282
(lp3283
I721
aI291
aI810
aI378
aassS'D:\\BaiduNetdiskDownload\\image1000\\000524.jpg'
p3284
(dp3285
g3
(lp3286
(lp3287
I599
aI286
aI693
aI377
aasg6
(lp3288
ssS'D:\\BaiduNetdiskDownload\\image1000\\000219.jpg'
p3289
(dp3290
g3
(lp3291
(lp3292
I343
aI553
aI391
aI612
aasg6
(lp3293
ssS'D:\\BaiduNetdiskDownload\\image1000\\000863.jpg'
p3294
(dp3295
g3
(lp3296
(lp3297
I1025
aI523
aI1090
aI582
aasg6
(lp3298
(lp3299
I1337
aI220
aI1450
aI325
aassS'D:\\BaiduNetdiskDownload\\image1000\\000451.jpg'
p3300
(dp3301
g3
(lp3302
(lp3303
I1061
aI217
aI1111
aI270
aasg6
(lp3304
(lp3305
I722
aI357
aI832
aI475
aassS'D:\\BaiduNetdiskDownload\\image1000\\000065.jpg'
p3306
(dp3307
g3
(lp3308
(lp3309
I175
aI299
aI236
aI358
aasg6
(lp3310
(lp3311
I552
aI268
aI638
aI365
aassS'D:\\BaiduNetdiskDownload\\image1000\\000052.jpg'
p3312
(dp3313
g3
(lp3314
(lp3315
I478
aI217
aI542
aI279
aasg6
(lp3316
(lp3317
I514
aI254
aI623
aI380
aassS'D:\\BaiduNetdiskDownload\\image1000\\000846.jpg'
p3318
(dp3319
g3
(lp3320
(lp3321
I933
aI130
aI991
aI196
aasg6
(lp3322
(lp3323
I969
aI171
aI1076
aI282
aassS'D:\\BaiduNetdiskDownload\\image1000\\000897.jpg'
p3324
(dp3325
g3
(lp3326
(lp3327
I855
aI444
aI914
aI503
aasg6
(lp3328
(lp3329
I656
aI147
aI758
aI260
aassS'D:\\BaiduNetdiskDownload\\image1000\\000664.jpg'
p3330
(dp3331
g3
(lp3332
(lp3333
I400
aI717
aI447
aI770
aasg6
(lp3334
(lp3335
I1400
aI233
aI1489
aI306
aassS'D:\\BaiduNetdiskDownload\\image1000\\000283.jpg'
p3336
(dp3337
g3
(lp3338
(lp3339
I1049
aI426
aI1091
aI470
aasg6
(lp3340
(lp3341
I1128
aI216
aI1211
aI303
aassS'D:\\BaiduNetdiskDownload\\image1000\\000424.jpg'
p3342
(dp3343
g3
(lp3344
(lp3345
I1043
aI449
aI1092
aI490
aasg6
(lp3346
(lp3347
I627
aI276
aI717
aI362
aassS'D:\\BaiduNetdiskDownload\\image1000\\000114.jpg'
p3348
(dp3349
g3
(lp3350
(lp3351
I1187
aI297
aI1234
aI348
aasg6
(lp3352
(lp3353
I624
aI260
aI713
aI369
aassS'D:\\BaiduNetdiskDownload\\image1000\\000119.jpg'
p3354
(dp3355
g3
(lp3356
(lp3357
I1220
aI610
aI1457
aI828
aasg6
(lp3358
ssS'D:\\BaiduNetdiskDownload\\image1000\\000229.jpg'
p3359
(dp3360
g3
(lp3361
(lp3362
I1199
aI449
aI1232
aI484
aasg6
(lp3363
(lp3364
I1212
aI280
aI1289
aI346
aassS'D:\\BaiduNetdiskDownload\\image1000\\000724.jpg'
p3365
(dp3366
g3
(lp3367
(lp3368
I893
aI607
aI928
aI653
aasg6
(lp3369
(lp3370
I1195
aI265
aI1295
aI354
aassS'D:\\BaiduNetdiskDownload\\image1000\\000338.jpg'
p3371
(dp3372
g3
(lp3373
(lp3374
I887
aI297
aI936
aI339
aasg6
(lp3375
(lp3376
I852
aI323
aI960
aI418
aassS'D:\\BaiduNetdiskDownload\\image1000\\000980.jpg'
p3377
(dp3378
g3
(lp3379
(lp3380
I697
aI529
aI749
aI579
aasg6
(lp3381
(lp3382
I635
aI291
aI735
aI391
aassS'D:\\BaiduNetdiskDownload\\image1000\\000025.jpg'
p3383
(dp3384
g3
(lp3385
(lp3386
I742
aI121
aI813
aI182
aasg6
(lp3387
(lp3388
I1237
aI230
aI1344
aI352
aassS'D:\\BaiduNetdiskDownload\\image1000\\000800.jpg'
p3389
(dp3390
g3
(lp3391
(lp3392
I1396
aI701
aI1462
aI757
aasg6
(lp3393
(lp3394
I735
aI245
aI834
aI362
aassS'D:\\BaiduNetdiskDownload\\image1000\\000882.jpg'
p3395
(dp3396
g3
(lp3397
(lp3398
I475
aI305
aI528
aI366
aasg6
(lp3399
(lp3400
I1337
aI145
aI1437
aI237
aassS'D:\\BaiduNetdiskDownload\\image1000\\000000.jpg'
p3401
(dp3402
g3
(lp3403
(lp3404
I578
aI776
aI630
aI817
aasg6
(lp3405
(lp3406
I328
aI167
aI420
aI243
aassS'D:\\BaiduNetdiskDownload\\image1000\\000214.jpg'
p3407
(dp3408
g3
(lp3409
(lp3410
I1368
aI210
aI1422
aI263
aasg6
(lp3411
ssS'D:\\BaiduNetdiskDownload\\image1000\\000864.jpg'
p3412
(dp3413
g3
(lp3414
(lp3415
I1123
aI165
aI1173
aI220
aasg6
(lp3416
(lp3417
I1060
aI243
aI1173
aI354
aassS'D:\\BaiduNetdiskDownload\\image1000\\000765.jpg'
p3418
(dp3419
g3
(lp3420
(lp3421
I904
aI627
aI952
aI684
aasg6
(lp3422
ssS'D:\\BaiduNetdiskDownload\\image1000\\000646.jpg'
p3423
(dp3424
g3
(lp3425
(lp3426
I1429
aI498
aI1486
aI558
aasg6
(lp3427
(lp3428
I1396
aI233
aI1490
aI335
aassS'D:\\BaiduNetdiskDownload\\image1000\\000720.jpg'
p3429
(dp3430
g3
(lp3431
(lp3432
I1098
aI650
aI1135
aI696
aasg6
(lp3433
(lp3434
I1229
aI265
aI1305
aI334
aassS'D:\\BaiduNetdiskDownload\\image1000\\000629.jpg'
p3435
(dp3436
g3
(lp3437
(lp3438
I306
aI740
aI364
aI797
aasg6
(lp3439
(lp3440
I1265
aI248
aI1346
aI335
aassS'D:\\BaiduNetdiskDownload\\image1000\\000986.jpg'
p3441
(dp3442
g3
(lp3443
(lp3444
I1227
aI401
aI1289
aI460
aasg6
(lp3445
(lp3446
I1298
aI250
aI1431
aI366
aassS'D:\\BaiduNetdiskDownload\\image1000\\000457.jpg'
p3447
(dp3448
g3
(lp3449
(lp3450
I1489
aI733
aI1544
aI788
aasg6
(lp3451
(lp3452
I489
aI213
aI576
aI297
aassS'D:\\BaiduNetdiskDownload\\image1000\\000669.jpg'
p3453
(dp3454
g3
(lp3455
(lp3456
I289
aI658
aI230
aI716
aasg6
(lp3457
(lp3458
I1267
aI225
aI1344
aI314
aassS'D:\\BaiduNetdiskDownload\\image1000\\000373.jpg'
p3459
(dp3460
g3
(lp3461
sg6
(lp3462
(lp3463
I859
aI319
aI945
aI424
aassS'D:\\BaiduNetdiskDownload\\image1000\\000015.jpg'
p3464
(dp3465
g3
(lp3466
(lp3467
I1125
aI503
aI1175
aI556
aasg6
(lp3468
(lp3469
I604
aI233
aI670
aI326
aassS'D:\\BaiduNetdiskDownload\\image1000\\000054.jpg'
p3470
(dp3471
g3
(lp3472
(lp3473
I1481
aI426
aI1551
aI487
aasg6
(lp3474
(lp3475
I1289
aI65
aI1395
aI204
aassS'D:\\BaiduNetdiskDownload\\image1000\\000178.jpg'
p3476
(dp3477
g3
(lp3478
sg6
(lp3479
(lp3480
I614
aI282
aI692
aI363
aassS'D:\\BaiduNetdiskDownload\\image1000\\000437.jpg'
p3481
(dp3482
g3
(lp3483
sg6
(lp3484
(lp3485
I381
aI237
aI440
aI311
aassS'D:\\BaiduNetdiskDownload\\image1000\\000304.jpg'
p3486
(dp3487
g3
(lp3488
(lp3489
I953
aI543
aI997
aI595
aasg6
(lp3490
(lp3491
I825
aI329
aI925
aI435
aassS'D:\\BaiduNetdiskDownload\\image1000\\000963.jpg'
p3492
(dp3493
g3
(lp3494
sg6
(lp3495
(lp3496
I929
aI73
aI1064
aI190
aassS'D:\\BaiduNetdiskDownload\\image1000\\000107.jpg'
p3497
(dp3498
g3
(lp3499
sg6
(lp3500
(lp3501
I1310
aI228
aI1400
aI329
aassS'D:\\BaiduNetdiskDownload\\image1000\\000772.jpg'
p3502
(dp3503
g3
(lp3504
(lp3505
I1482
aI533
aI1530
aI593
aasg6
(lp3506
(lp3507
I590
aI266
aI687
aI355
aassS'D:\\BaiduNetdiskDownload\\image1000\\000786.jpg'
p3508
(dp3509
g3
(lp3510
sg6
(lp3511
(lp3512
I340
aI219
aI436
aI306
aassS'D:\\BaiduNetdiskDownload\\image1000\\000238.jpg'
p3513
(dp3514
g3
(lp3515
(lp3516
I1430
aI294
aI1472
aI329
aasg6
(lp3517
(lp3518
I597
aI188
aI676
aI276
aassS'D:\\BaiduNetdiskDownload\\image1000\\000739.jpg'
p3519
(dp3520
g3
(lp3521
sg6
(lp3522
(lp3523
I568
aI179
aI668
aI277
aassS'D:\\BaiduNetdiskDownload\\image1000\\000799.jpg'
p3524
(dp3525
g3
(lp3526
sg6
(lp3527
(lp3528
I1258
aI236
aI1358
aI331
aassS'D:\\BaiduNetdiskDownload\\image1000\\000257.jpg'
p3529
(dp3530
g3
(lp3531
sg6
(lp3532
(lp3533
I693
aI194
aI807
aI305
aassS'D:\\BaiduNetdiskDownload\\image1000\\000944.jpg'
p3534
(dp3535
g3
(lp3536
(lp3537
I519
aI311
aI571
aI362
aasg6
(lp3538
(lp3539
I1164
aI184
aI1250
aI289
aassS'D:\\BaiduNetdiskDownload\\image1000\\000406.jpg'
p3540
(dp3541
g3
(lp3542
sg6
(lp3543
(lp3544
I632
aI242
aI707
aI342
aassS'D:\\BaiduNetdiskDownload\\image1000\\000818.jpg'
p3545
(dp3546
g3
(lp3547
(lp3548
I1063
aI466
aI1128
aI516
aasg6
(lp3549
(lp3550
I1122
aI253
aI1234
aI360
aassS'D:\\BaiduNetdiskDownload\\image1000\\000531.jpg'
p3551
(dp3552
g3
(lp3553
(lp3554
I1471
aI360
aI1526
aI412
aasg6
(lp3555
(lp3556
I357
aI168
aI434
aI253
aassS'D:\\BaiduNetdiskDownload\\image1000\\000824.jpg'
p3557
(dp3558
g3
(lp3559
(lp3560
I1589
aI354
aI1647
aI409
aasg6
(lp3561
(lp3562
I424
aI176
aI544
aI274
aassS'D:\\BaiduNetdiskDownload\\image1000\\000704.jpg'
p3563
(dp3564
g3
(lp3565
(lp3566
I675
aI274
aI722
aI326
aasg6
(lp3567
(lp3568
I665
aI303
aI756
aI405
aassS'D:\\BaiduNetdiskDownload\\image1000\\000509.jpg'
p3569
(dp3570
g3
(lp3571
(lp3572
I780
aI632
aI829
aI687
aasg6
(lp3573
(lp3574
I790
aI250
aI863
aI328
aassS'D:\\BaiduNetdiskDownload\\image1000\\000590.jpg'
p3575
(dp3576
g3
(lp3577
(lp3578
I938
aI633
aI994
aI687
aasg6
(lp3579
(lp3580
I1596
aI92
aI1744
aI210
aassS'D:\\BaiduNetdiskDownload\\image1000\\000695.jpg'
p3581
(dp3582
g3
(lp3583
(lp3584
I700
aI368
aI749
aI412
aasg6
(lp3585
ssS'D:\\BaiduNetdiskDownload\\image1000\\000092.jpg'
p3586
(dp3587
g3
(lp3588
(lp3589
I1170
aI429
aI1205
aI466
aasg6
(lp3590
(lp3591
I109
aI167
aI185
aI259
aassS'D:\\BaiduNetdiskDownload\\image1000\\000936.jpg'
p3592
(dp3593
g3
(lp3594
(lp3595
I917
aI159
aI1063
aI286
aasg6
(lp3596
(lp3597
I995
aI323
aI1242
aI609
aassS'D:\\BaiduNetdiskDownload\\image1000\\000224.jpg'
p3598
(dp3599
g3
(lp3600
(lp3601
I240
aI498
aI278
aI544
aasg6
(lp3602
(lp3603
I1370
aI240
aI1438
aI309
aassS'D:\\BaiduNetdiskDownload\\image1000\\000559.jpg'
p3604
(dp3605
g3
(lp3606
(lp3607
I482
aI538
aI548
aI596
aasg6
(lp3608
(lp3609
I713
aI170
aI850
aI316
aassS'D:\\BaiduNetdiskDownload\\image1000\\000363.jpg'
p3610
(dp3611
g3
(lp3612
(lp3613
I926
aI599
aI974
aI656
aasg6
(lp3614
(lp3615
I856
aI312
aI948
aI412
aassS'D:\\BaiduNetdiskDownload\\image1000\\000179.jpg'
p3616
(dp3617
g3
(lp3618
(lp3619
I1559
aI518
aI1609
aI564
aasg6
(lp3620
ssS'D:\\BaiduNetdiskDownload\\image1000\\000223.jpg'
p3621
(dp3622
g3
(lp3623
(lp3624
I1453
aI447
aI1496
aI490
aasg6
(lp3625
(lp3626
I587
aI179
aI665
aI254
aassS'D:\\BaiduNetdiskDownload\\image1000\\000497.jpg'
p3627
(dp3628
g3
(lp3629
sg6
(lp3630
(lp3631
I836
aI239
aI963
aI383
aassS'D:\\BaiduNetdiskDownload\\image1000\\000907.jpg'
p3632
(dp3633
g3
(lp3634
sg6
(lp3635
(lp3636
I1195
aI177
aI1294
aI270
aassS'D:\\BaiduNetdiskDownload\\image1000\\000999.jpg'
p3637
(dp3638
g3
(lp3639
(lp3640
I244
aI593
aI281
aI642
aasg6
(lp3641
(lp3642
I1611
aI259
aI1699
aI337
aassS'D:\\BaiduNetdiskDownload\\image1000\\000541.jpg'
p3643
(dp3644
g3
(lp3645
(lp3646
I1320
aI648
aI1378
aI711
aasg6
(lp3647
(lp3648
I452
aI93
aI541
aI200
aassS'D:\\BaiduNetdiskDownload\\image1000\\000477.jpg'
p3649
(dp3650
g3
(lp3651
sg6
(lp3652
(lp3653
I689
aI230
aI777
aI316
aassS'D:\\BaiduNetdiskDownload\\image1000\\000951.jpg'
p3654
(dp3655
g3
(lp3656
(lp3657
I822
aI289
aI876
aI346
aasg6
(lp3658
(lp3659
I1240
aI207
aI1333
aI308
aassS'D:\\BaiduNetdiskDownload\\image1000\\000112.jpg'
p3660
(dp3661
g3
(lp3662
(lp3663
I1007
aI220
aI1076
aI286
aasg6
(lp3664
(lp3665
I793
aI167
aI955
aI13
aassS'D:\\BaiduNetdiskDownload\\image1000\\000873.jpg'
p3666
(dp3667
g3
(lp3668
(lp3669
I1097
aI500
aI1154
aI549
aasg6
(lp3670
ssS'D:\\BaiduNetdiskDownload\\image1000\\000930.jpg'
p3671
(dp3672
g3
(lp3673
(lp3674
I1022
aI492
aI1137
aI627
aasg6
(lp3675
ssS'D:\\BaiduNetdiskDownload\\image1000\\000996.jpg'
p3676
(dp3677
g3
(lp3678
(lp3679
I516
aI266
aI1074
aI856
aa(lp3680
I1246
aI760
aI1309
aI811
aasg6
(lp3681
(lp3682
I647
aI208
aI749
aI306
aassS'D:\\BaiduNetdiskDownload\\image1000\\000038.jpg'
p3683
(dp3684
g3
(lp3685
(lp3686
I1137
aI510
aI1182
aI561
aasg6
(lp3687
(lp3688
I285
aI199
aI375
aI312
aassS'D:\\BaiduNetdiskDownload\\image1000\\000600.jpg'
p3689
(dp3690
g3
(lp3691
(lp3692
I797
aI217
aI893
aI314
aasg6
(lp3693
ssS'D:\\BaiduNetdiskDownload\\image1000\\000840.jpg'
p3694
(dp3695
g3
(lp3696
(lp3697
I1270
aI651
aI1339
aI704
aasg6
(lp3698
(lp3699
I1109
aI273
aI1187
aI354
aassS'D:\\BaiduNetdiskDownload\\image1000\\000776.jpg'
p3700
(dp3701
g3
(lp3702
(lp3703
I744
aI503
aI893
aI645
aasg6
(lp3704
(lp3705
I848
aI415
aI1083
aI639
aassS'D:\\BaiduNetdiskDownload\\image1000\\000301.jpg'
p3706
(dp3707
g3
(lp3708
(lp3709
I742
aI501
aI783
aI549
aasg6
(lp3710
ssS'D:\\BaiduNetdiskDownload\\image1000\\000483.jpg'
p3711
(dp3712
g3
(lp3713
sg6
(lp3714
(lp3715
I682
aI228
aI769
aI316
aassS'D:\\BaiduNetdiskDownload\\image1000\\000953.jpg'
p3716
(dp3717
g3
(lp3718
(lp3719
I846
aI397
aI896
aI452
aasg6
(lp3720
(lp3721
I1157
aI213
aI1256
aI320
aassS'D:\\BaiduNetdiskDownload\\image1000\\000419.jpg'
p3722
(dp3723
g3
(lp3724
(lp3725
I1292
aI481
aI1346
aI546
aasg6
(lp3726
(lp3727
I1070
aI211
aI1187
aI337
aassS'D:\\BaiduNetdiskDownload\\image1000\\000822.jpg'
p3728
(dp3729
g3
(lp3730
sg6
(lp3731
(lp3732
I503
aI242
aI604
aI320
aassS'D:\\BaiduNetdiskDownload\\image1000\\000063.jpg'
p3733
(dp3734
g3
(lp3735
sg6
(lp3736
(lp3737
I687
aI193
aI741
aI260
aassS'D:\\BaiduNetdiskDownload\\image1000\\000736.jpg'
p3738
(dp3739
g3
(lp3740
(lp3741
I1374
aI467
aI1447
aI523
aasg6
(lp3742
(lp3743
I441
aI138
aI538
aI220
aassS'D:\\BaiduNetdiskDownload\\image1000\\000254.jpg'
p3744
(dp3745
g3
(lp3746
(lp3747
I490
aI495
aI524
aI532
aasg6
(lp3748
ssS'D:\\BaiduNetdiskDownload\\image1000\\000333.jpg'
p3749
(dp3750
g3
(lp3751
(lp3752
I1015
aI233
aI1063
aI291
aasg6
(lp3753
(lp3754
I860
aI320
aI952
aI412
aassS'D:\\BaiduNetdiskDownload\\image1000\\000551.jpg'
p3755
(dp3756
g3
(lp3757
sg6
(lp3758
(lp3759
I663
aI246
aI751
aI343
aassS'D:\\BaiduNetdiskDownload\\image1000\\000182.jpg'
p3760
(dp3761
g3
(lp3762
(lp3763
I744
aI207
aI805
aI262
aasg6
(lp3764
(lp3765
I748
aI254
aI836
aI354
aassS'D:\\BaiduNetdiskDownload\\image1000\\000233.jpg'
p3766
(dp3767
g3
(lp3768
sg6
(lp3769
(lp3770
I587
aI280
aI655
aI357
aassS'D:\\BaiduNetdiskDownload\\image1000\\000316.jpg'
p3771
(dp3772
g3
(lp3773
(lp3774
I136
aI394
aI198
aI444
aasg6
(lp3775
(lp3776
I1257
aI171
aI1353
aI277
aassS'D:\\BaiduNetdiskDownload\\image1000\\000689.jpg'
p3777
(dp3778
g3
(lp3779
(lp3780
I903
aI288
aI970
aI354
aasg6
(lp3781
(lp3782
I495
aI125
aI611
aI253
aassS'D:\\BaiduNetdiskDownload\\image1000\\000935.jpg'
p3783
(dp3784
g3
(lp3785
(lp3786
I699
aI533
aI872
aI678
aasg6
(lp3787
(lp3788
I888
aI217
aI1129
aI474
aassS'D:\\BaiduNetdiskDownload\\image1000\\000627.jpg'
p3789
(dp3790
g3
(lp3791
(lp3792
I582
aI564
aI630
aI618
aasg6
(lp3793
(lp3794
I811
aI293
aI894
aI368
aassS'D:\\BaiduNetdiskDownload\\image1000\\001000.jpg'
p3795
(dp3796
g3
(lp3797
(lp3798
I1450
aI719
aI1503
aI774
aasg6
(lp3799
(lp3800
I645
aI217
aI727
aI309
aassS'D:\\BaiduNetdiskDownload\\image1000\\000039.jpg'
p3801
(dp3802
g3
(lp3803
(lp3804
I1455
aI601
aI1516
aI667
aasg6
(lp3805
ssS'D:\\BaiduNetdiskDownload\\image1000\\000162.jpg'
p3806
(dp3807
g3
(lp3808
(lp3809
I1045
aI213
aI1236
aI406
aasg6
(lp3810
ssS'D:\\BaiduNetdiskDownload\\image1000\\000833.jpg'
p3811
(dp3812
g3
(lp3813
sg6
(lp3814
(lp3815
I582
aI246
aI692
aI340
aassS'D:\\BaiduNetdiskDownload\\image1000\\000471.jpg'
p3816
(dp3817
g3
(lp3818
(lp3819
I1109
aI547
aI1191
aI645
aasg6
(lp3820
(lp3821
I1033
aI159
aI1139
aI299
aassS'D:\\BaiduNetdiskDownload\\image1000\\000402.jpg'
p3822
(dp3823
g3
(lp3824
sg6
(lp3825
(lp3826
I673
aI253
aI756
aI343
aassS'D:\\BaiduNetdiskDownload\\image1000\\000387.jpg'
p3827
(dp3828
g3
(lp3829
sg6
(lp3830
(lp3831
I331
aI277
aI413
aI385
aassS'D:\\BaiduNetdiskDownload\\image1000\\000022.jpg'
p3832
(dp3833
g3
(lp3834
sg6
(lp3835
(lp3836
I607
aI233
aI689
aI317
aassS'D:\\BaiduNetdiskDownload\\image1000\\000391.jpg'
p3837
(dp3838
g3
(lp3839
(lp3840
I665
aI182
aI715
aI236
aasg6
(lp3841
ssS'D:\\BaiduNetdiskDownload\\image1000\\000965.jpg'
p3842
(dp3843
g3
(lp3844
(lp3845
I319
aI319
aI365
aI366
aasg6
(lp3846
(lp3847
I1347
aI95
aI1450
aI197
aassS'D:\\BaiduNetdiskDownload\\image1000\\000649.jpg'
p3848
(dp3849
g3
(lp3850
sg6
(lp3851
(lp3852
I710
aI254
aI796
aI337
aassS'D:\\BaiduNetdiskDownload\\image1000\\000083.jpg'
p3853
(dp3854
g3
(lp3855
(lp3856
I341
aI572
aI392
aI618
aasg6
(lp3857
(lp3858
I1676
aI150
aI1755
aI236
aassS'D:\\BaiduNetdiskDownload\\image1000\\000120.jpg'
p3859
(dp3860
g3
(lp3861
(lp3862
I454
aI667
aI512
aI724
aasg6
(lp3863
(lp3864
I1406
aI138
aI1486
aI225
aassS'D:\\BaiduNetdiskDownload\\image1000\\000633.jpg'
p3865
(dp3866
g3
(lp3867
(lp3868
I353
aI469
aI396
aI516
aasg6
(lp3869
(lp3870
I1440
aI173
aI1538
aI266
aassS'D:\\BaiduNetdiskDownload\\image1000\\000737.jpg'
p3871
(dp3872
g3
(lp3873
(lp3874
I759
aI385
aI825
aI432
aasg6
(lp3875
(lp3876
I683
aI308
aI773
aI400
aassS'D:\\BaiduNetdiskDownload\\image1000\\000955.jpg'
p3877
(dp3878
g3
(lp3879
sg6
(lp3880
(lp3881
I1476
aI88
aI1600
aI182
aassS'D:\\BaiduNetdiskDownload\\image1000\\000764.jpg'
p3882
(dp3883
g3
(lp3884
sg6
(lp3885
(lp3886
I772
aI312
aI832
aI378
aassS'D:\\BaiduNetdiskDownload\\image1000\\000423.jpg'
p3887
(dp3888
g3
(lp3889
(lp3890
I1258
aI420
aI1289
aI449
aasg6
(lp3891
ssS'D:\\BaiduNetdiskDownload\\image1000\\000389.jpg'
p3892
(dp3893
g3
(lp3894
(lp3895
I825
aI633
aI874
aI678
aasg6
(lp3896
(lp3897
I497
aI122
aI579
aI225
aassS'D:\\BaiduNetdiskDownload\\image1000\\000893.jpg'
p3898
(dp3899
g3
(lp3900
(lp3901
I1074
aI208
aI1116
aI251
aasg6
(lp3902
(lp3903
I769
aI207
aI863
aI291
aassS'D:\\BaiduNetdiskDownload\\image1000\\000456.jpg'
p3904
(dp3905
g3
(lp3906
sg6
(lp3907
(lp3908
I492
aI220
aI579
aI303
aassS'D:\\BaiduNetdiskDownload\\image1000\\000285.jpg'
p3909
(dp3910
g3
(lp3911
sg6
(lp3912
(lp3913
I1364
aI228
aI1436
aI314
aassS'D:\\BaiduNetdiskDownload\\image1000\\000575.jpg'
p3914
(dp3915
g3
(lp3916
(lp3917
I928
aI724
aI981
aI773
aasg6
(lp3918
(lp3919
I1295
aI156
aI1378
aI242
aassS'D:\\BaiduNetdiskDownload\\image1000\\000987.jpg'
p3920
(dp3921
g3
(lp3922
(lp3923
I1354
aI391
aI1415
aI446
aasg6
(lp3924
(lp3925
I1288
aI256
aI1413
aI357
aassS'D:\\BaiduNetdiskDownload\\image1000\\000883.jpg'
p3926
(dp3927
g3
(lp3928
(lp3929
I1173
aI360
aI1222
aI408
aasg6
(lp3930
(lp3931
I1069
aI164
aI1166
aI262
aassS'D:\\BaiduNetdiskDownload\\image1000\\000035.jpg'
p3932
(dp3933
g3
(lp3934
(lp3935
I1260
aI196
aI1308
aI245
aasg6
(lp3936
(lp3937
I1230
aI219
aI1341
aI335
aassS'D:\\BaiduNetdiskDownload\\image1000\\000154.jpg'
p3938
(dp3939
g3
(lp3940
(lp3941
I1111
aI308
aI1163
aI363
aasg6
(lp3942
(lp3943
I486
aI291
aI579
aI385
aassS'D:\\BaiduNetdiskDownload\\image1000\\000910.jpg'
p3944
(dp3945
g3
(lp3946
(lp3947
I770
aI352
aI813
aI394
aasg6
(lp3948
(lp3949
I1177
aI196
aI1281
aI289
aassS'D:\\BaiduNetdiskDownload\\image1000\\000386.jpg'
p3950
(dp3951
g3
(lp3952
(lp3953
I1351
aI590
aI1396
aI648
aasg6
(lp3954
(lp3955
I779
aI138
aI860
aI225
aassS'D:\\BaiduNetdiskDownload\\image1000\\000032.jpg'
p3956
(dp3957
g3
(lp3958
(lp3959
I888
aI569
aI952
aI627
aasg6
(lp3960
ssS'D:\\BaiduNetdiskDownload\\image1000\\000329.jpg'
p3961
(dp3962
g3
(lp3963
(lp3964
I950
aI411
aI1002
aI467
aasg6
(lp3965
(lp3966
I735
aI312
aI824
aI405
aassS'D:\\BaiduNetdiskDownload\\image1000\\000591.jpg'
p3967
(dp3968
g3
(lp3969
(lp3970
I1533
aI572
aI1589
aI624
aasg6
(lp3971
(lp3972
I458
aI266
aI549
aI348
aassS'D:\\BaiduNetdiskDownload\\image1000\\000802.jpg'
p3973
(dp3974
g3
(lp3975
(lp3976
I1264
aI584
aI1323
aI648
aasg6
(lp3977
ssS'D:\\BaiduNetdiskDownload\\image1000\\000762.jpg'
p3978
(dp3979
g3
(lp3980
(lp3981
I1410
aI220
aI1581
aI378
aasg6
(lp3982
ssS'D:\\BaiduNetdiskDownload\\image1000\\000440.jpg'
p3983
(dp3984
g3
(lp3985
sg6
(lp3986
(lp3987
I635
aI248
aI717
aI351
aassS'D:\\BaiduNetdiskDownload\\image1000\\000716.jpg'
p3988
(dp3989
g3
(lp3990
(lp3991
I874
aI447
aI929
aI500
aasg6
(lp3992
(lp3993
I1292
aI197
aI1424
aI305
aassS'D:\\BaiduNetdiskDownload\\image1000\\000468.jpg'
p3994
(dp3995
g3
(lp3996
sg6
(lp3997
(lp3998
I399
aI245
aI507
aI360
aassS'D:\\BaiduNetdiskDownload\\image1000\\000252.jpg'
p3999
(dp4000
g3
(lp4001
(lp4002
I766
aI797
aI820
aI840
aasg6
(lp4003
(lp4004
I730
aI228
aI801
aI308
aassS'D:\\BaiduNetdiskDownload\\image1000\\000875.jpg'
p4005
(dp4006
g3
(lp4007
(lp4008
I890
aI363
aI1001
aI457
aasg6
(lp4009
(lp4010
I880
aI701
aI1115
aI928
aassS'D:\\BaiduNetdiskDownload\\image1000\\000019.jpg'
p4011
(dp4012
g3
(lp4013
(lp4014
I1180
aI363
aI1226
aI409
aasg6
(lp4015
(lp4016
I609
aI243
aI690
aI326
aassS'D:\\BaiduNetdiskDownload\\image1000\\000014.jpg'
p4017
(dp4018
g3
(lp4019
(lp4020
I154
aI572
aI210
aI622
aasg6
(lp4021
(lp4022
I1521
aI200
aI1606
aI305
aassS'D:\\BaiduNetdiskDownload\\image1000\\000501.jpg'
p4023
(dp4024
g3
(lp4025
(lp4026
I683
aI500
aI732
aI549
aasg6
(lp4027
(lp4028
I569
aI243
aI659
aI348
aassS'D:\\BaiduNetdiskDownload\\image1000\\000913.jpg'
p4029
(dp4030
g3
(lp4031
sg6
(lp4032
(lp4033
I1249
aI188
aI1340
aI289
aassS'D:\\BaiduNetdiskDownload\\image1000\\000288.jpg'
p4034
(dp4035
g3
(lp4036
(lp4037
I175
aI530
aI218
aI579
aasg6
(lp4038
(lp4039
I1375
aI228
aI1455
aI314
aassS'D:\\BaiduNetdiskDownload\\image1000\\000348.jpg'
p4040
(dp4041
g3
(lp4042
sg6
(lp4043
(lp4044
I459
aI219
aI559
aI329
aassS'D:\\BaiduNetdiskDownload\\image1000\\000606.jpg'
p4045
(dp4046
g3
(lp4047
(lp4048
I1294
aI438
aI1354
aI493
aasg6
(lp4049
ssS'D:\\BaiduNetdiskDownload\\image1000\\000374.jpg'
p4050
(dp4051
g3
(lp4052
sg6
(lp4053
(lp4054
I282
aI277
aI379
aI375
aassS'D:\\BaiduNetdiskDownload\\image1000\\000506.jpg'
p4055
(dp4056
g3
(lp4057
(lp4058
I1561
aI492
aI1609
aI556
aasg6
(lp4059
ssS'D:\\BaiduNetdiskDownload\\image1000\\000748.jpg'
p4060
(dp4061
g3
(lp4062
(lp4063
I562
aI724
aI620
aI785
aasg6
(lp4064
ssS'D:\\BaiduNetdiskDownload\\image1000\\000639.jpg'
p4065
(dp4066
g3
(lp4067
(lp4068
I474
aI690
aI541
aI747
aasg6
(lp4069
(lp4070
I1225
aI167
aI1329
aI263
aassS'D:\\BaiduNetdiskDownload\\image1000\\000926.jpg'
p4071
(dp4072
g3
(lp4073
(lp4074
I1237
aI584
aI1299
aI655
aasg6
(lp4075
ssS'D:\\BaiduNetdiskDownload\\image1000\\000349.jpg'
p4076
(dp4077
g3
(lp4078
(lp4079
I1118
aI245
aI1173
aI293
aasg6
(lp4080
(lp4081
I1130
aI320
aI1232
aI432
aassS'D:\\BaiduNetdiskDownload\\image1000\\000454.jpg'
p4082
(dp4083
g3
(lp4084
(lp4085
I557
aI619
aI616
aI676
aasg6
(lp4086
(lp4087
I472
aI197
aI557
aI288
aassS'D:\\BaiduNetdiskDownload\\image1000\\000828.jpg'
p4088
(dp4089
g3
(lp4090
(lp4091
I1627
aI504
aI1683
aI556
aasg6
(lp4092
(lp4093
I621
aI242
aI707
aI316
aassS'D:\\BaiduNetdiskDownload\\image1000\\000686.jpg'
p4094
(dp4095
g3
(lp4096
(lp4097
I500
aI444
aI566
aI509
aasg6
(lp4098
(lp4099
I597
aI196
aI728
aI314
aassS'D:\\BaiduNetdiskDownload\\image1000\\000528.jpg'
p4100
(dp4101
g3
(lp4102
(lp4103
I687
aI466
aI745
aI521
aasg6
(lp4104
(lp4105
I517
aI259
aI602
aI351
aassS'D:\\BaiduNetdiskDownload\\image1000\\000040.jpg'
p4106
(dp4107
g3
(lp4108
(lp4109
I1108
aI447
aI1153
aI489
aasg6
(lp4110
(lp4111
I1204
aI214
aI1281
aI308
aassS'D:\\BaiduNetdiskDownload\\image1000\\000147.jpg'
p4112
(dp4113
g3
(lp4114
(lp4115
I1163
aI316
aI1234
aI386
aasg6
(lp4116
(lp4117
I1074
aI185
aI1188
aI285
aassS'D:\\BaiduNetdiskDownload\\image1000\\000665.jpg'
p4118
(dp4119
g3
(lp4120
(lp4121
I340
aI694
aI384
aI745
aasg6
(lp4122
(lp4123
I1412
aI225
aI1483
aI309
aassS'D:\\BaiduNetdiskDownload\\image1000\\000353.jpg'
p4124
(dp4125
g3
(lp4126
(lp4127
I1455
aI461
aI1503
aI504
aasg6
(lp4128
ssS'D:\\BaiduNetdiskDownload\\image1000\\000650.jpg'
p4129
(dp4130
g3
(lp4131
(lp4132
I312
aI512
aI357
aI578
aasg6
(lp4133
(lp4134
I1319
aI194
aI1426
aI279
aassS'D:\\BaiduNetdiskDownload\\image1000\\000579.jpg'
p4135
(dp4136
g3
(lp4137
(lp4138
I955
aI678
aI1004
aI730
aasg6
(lp4139
(lp4140
I1244
aI148
aI1340
aI254
aassS'D:\\BaiduNetdiskDownload\\image1000\\000710.jpg'
p4141
(dp4142
g3
(lp4143
sg6
(lp4144
(lp4145
I561
aI259
aI658
aI355
aassS'D:\\BaiduNetdiskDownload\\image1000\\000701.jpg'
p4146
(dp4147
g3
(lp4148
(lp4149
I433
aI868
aI506
aI932
aasg6
(lp4150
(lp4151
I1474
aI219
aI1586
aI349
aassS'D:\\BaiduNetdiskDownload\\image1000\\000584.jpg'
p4152
(dp4153
g3
(lp4154
(lp4155
I1410
aI475
aI1460
aI527
aasg6
(lp4156
ssS'D:\\BaiduNetdiskDownload\\image1000\\000134.jpg'
p4157
(dp4158
g3
(lp4159
(lp4160
I884
aI150
aI953
aI231
aasg6
(lp4161
(lp4162
I1236
aI133
aI1374
aI280
aassS'D:\\BaiduNetdiskDownload\\image1000\\000774.jpg'
p4163
(dp4164
g3
(lp4165
(lp4166
I679
aI438
aI724
aI486
aasg6
(lp4167
ssS'D:\\BaiduNetdiskDownload\\image1000\\000484.jpg'
p4168
(dp4169
g3
(lp4170
(lp4171
I1280
aI596
aI1326
aI650
aasg6
(lp4172
(lp4173
I572
aI245
aI662
aI352
aassS'D:\\BaiduNetdiskDownload\\image1000\\000921.jpg'
p4174
(dp4175
g3
(lp4176
(lp4177
I198
aI237
aI250
aI289
aasg6
(lp4178
(lp4179
I1225
aI82
aI1344
aI197
aassS'D:\\BaiduNetdiskDownload\\image1000\\000024.jpg'
p4180
(dp4181
g3
(lp4182
(lp4183
I1319
aI233
aI1361
aI280
aasg6
(lp4184
(lp4185
I1804
aI138
aI1887
aI217
aassS'D:\\BaiduNetdiskDownload\\image1000\\000108.jpg'
p4186
(dp4187
g3
(lp4188
(lp4189
I527
aI423
aI566
aI480
aasg6
(lp4190
(lp4191
I440
aI161
aI514
aI243
aassS'D:\\BaiduNetdiskDownload\\image1000\\000869.jpg'
p4192
(dp4193
g3
(lp4194
(lp4195
I980
aI481
aI1099
aI582
aasg6
(lp4196
ssS'D:\\BaiduNetdiskDownload\\image1000\\000264.jpg'
p4197
(dp4198
g3
(lp4199
(lp4200
I547
aI414
aI609
aI475
aasg6
(lp4201
(lp4202
I703
aI187
aI796
aI317
aassS'D:\\BaiduNetdiskDownload\\image1000\\000940.jpg'
p4203
(dp4204
g3
(lp4205
(lp4206
I1287
aI210
aI1375
aI311
aasg6
(lp4207
ssS'D:\\BaiduNetdiskDownload\\image1000\\000635.jpg'
p4208
(dp4209
g3
(lp4210
(lp4211
I1146
aI374
aI1227
aI457
aasg6
(lp4212
ssS'D:\\BaiduNetdiskDownload\\image1000\\000778.jpg'
p4213
(dp4214
g3
(lp4215
(lp4216
I1454
aI357
aI1509
aI406
aasg6
(lp4217
(lp4218
I293
aI170
aI384
aI291
aassS'D:\\BaiduNetdiskDownload\\image1000\\000565.jpg'
p4219
(dp4220
g3
(lp4221
sg6
(lp4222
(lp4223
I1344
aI250
aI1403
aI320
aassS'D:\\BaiduNetdiskDownload\\image1000\\000091.jpg'
p4224
(dp4225
g3
(lp4226
(lp4227
I341
aI573
aI395
aI619
aasg6
(lp4228
(lp4229
I1666
aI153
aI1749
aI240
aassS'D:\\BaiduNetdiskDownload\\image1000\\000566.jpg'
p4230
(dp4231
g3
(lp4232
(lp4233
I509
aI541
aI559
aI593
aasg6
(lp4234
ssS'D:\\BaiduNetdiskDownload\\image1000\\000332.jpg'
p4235
(dp4236
g3
(lp4237
sg6
(lp4238
(lp4239
I1420
aI286
aI1513
aI389
aassS'D:\\BaiduNetdiskDownload\\image1000\\000371.jpg'
p4240
(dp4241
g3
(lp4242
sg6
(lp4243
(lp4244
I642
aI199
aI718
aI286
aassS'D:\\BaiduNetdiskDownload\\image1000\\000569.jpg'
p4245
(dp4246
g3
(lp4247
(lp4248
I1256
aI512
aI1299
aI556
aasg6
(lp4249
(lp4250
I1275
aI274
aI1348
aI355
aassS'D:\\BaiduNetdiskDownload\\image1000\\000805.jpg'
p4251
(dp4252
g3
(lp4253
(lp4254
I1575
aI423
aI1637
aI480
aasg6
(lp4255
(lp4256
I251
aI222
aI348
aI314
aassS'D:\\BaiduNetdiskDownload\\image1000\\000659.jpg'
p4257
(dp4258
g3
(lp4259
(lp4260
I973
aI216
aI1026
aI280
aasg6
(lp4261
ssS'D:\\BaiduNetdiskDownload\\image1000\\000496.jpg'
p4262
(dp4263
g3
(lp4264
sg6
(lp4265
(lp4266
I565
aI251
aI668
aI369
aassS'D:\\BaiduNetdiskDownload\\image1000\\000781.jpg'
p4267
(dp4268
g3
(lp4269
(lp4270
I1275
aI661
aI1336
aI711
aasg6
(lp4271
(lp4272
I603
aI231
aI700
aI348
aassS'D:\\BaiduNetdiskDownload\\image1000\\000719.jpg'
p4273
(dp4274
g3
(lp4275
(lp4276
I1059
aI826
aI1126
aI895
aasg6
(lp4277
(lp4278
I1271
aI194
aI1384
aI303
aassS'D:\\BaiduNetdiskDownload\\image1000\\000545.jpg'
p4279
(dp4280
g3
(lp4281
sg6
(lp4282
(lp4283
I1610
aI274
aI1696
aI352
aassS'D:\\BaiduNetdiskDownload\\image1000\\000981.jpg'
p4284
(dp4285
g3
(lp4286
sg6
(lp4287
(lp4288
I1237
aI194
aI1365
aI293
aassS'D:\\BaiduNetdiskDownload\\image1000\\000418.jpg'
p4289
(dp4290
g3
(lp4291
sg6
(lp4292
(lp4293
I1294
aI234
aI1402
aI354
aassS'D:\\BaiduNetdiskDownload\\image1000\\000857.jpg'
p4294
(dp4295
g3
(lp4296
(lp4297
I926
aI128
aI991
aI197
aasg6
(lp4298
(lp4299
I960
aI161
aI1099
aI294
aassS'D:\\BaiduNetdiskDownload\\image1000\\000200.jpg'
p4300
(dp4301
g3
(lp4302
(lp4303
I400
aI451
aI445
aI495
aasg6
(lp4304
ssS'D:\\BaiduNetdiskDownload\\image1000\\000135.jpg'
p4305
(dp4306
g3
(lp4307
(lp4308
I1154
aI673
aI1208
aI737
aasg6
(lp4309
ssS'D:\\BaiduNetdiskDownload\\image1000\\000850.jpg'
p4310
(dp4311
g3
(lp4312
(lp4313
I1291
aI599
aI1351
aI671
aasg6
(lp4314
ssS'D:\\BaiduNetdiskDownload\\image1000\\000611.jpg'
p4315
(dp4316
g3
(lp4317
(lp4318
I1339
aI253
aI1386
aI300
aasg6
(lp4319
ssS'D:\\BaiduNetdiskDownload\\image1000\\000236.jpg'
p4320
(dp4321
g3
(lp4322
(lp4323
I537
aI573
aI572
aI610
aasg6
(lp4324
ssS'D:\\BaiduNetdiskDownload\\image1000\\000971.jpg'
p4325
(dp4326
g3
(lp4327
(lp4328
I896
aI443
aI952
aI500
aasg6
(lp4329
(lp4330
I1354
aI90
aI1447
aI204
aassS'D:\\BaiduNetdiskDownload\\image1000\\000548.jpg'
p4331
(dp4332
g3
(lp4333
(lp4334
I849
aI246
aI900
aI299
aasg6
(lp4335
(lp4336
I616
aI250
aI697
aI342
aassS'D:\\BaiduNetdiskDownload\\image1000\\000323.jpg'
p4337
(dp4338
g3
(lp4339
sg6
(lp4340
(lp4341
I841
aI311
aI936
aI409
aassS'D:\\BaiduNetdiskDownload\\image1000\\000390.jpg'
p4342
(dp4343
g3
(lp4344
(lp4345
I1218
aI432
aI1264
aI480
aasg6
(lp4346
(lp4347
I773
aI73
aI867
aI191
aassS'D:\\BaiduNetdiskDownload\\image1000\\000542.jpg'
p4348
(dp4349
g3
(lp4350
(lp4351
I358
aI513
aI393
aI550
aasg6
(lp4352
ssS'D:\\BaiduNetdiskDownload\\image1000\\000339.jpg'
p4353
(dp4354
g3
(lp4355
(lp4356
I1303
aI306
aI1347
aI354
aasg6
(lp4357
(lp4358
I462
aI211
aI565
aI320
aassS'D:\\BaiduNetdiskDownload\\image1000\\000462.jpg'
p4359
(dp4360
g3
(lp4361
(lp4362
I395
aI576
aI452
aI630
aasg6
(lp4363
ssS'D:\\BaiduNetdiskDownload\\image1000\\000734.jpg'
p4364
(dp4365
g3
(lp4366
(lp4367
I1540
aI351
aI1600
aI400
aasg6
(lp4368
ssS'D:\\BaiduNetdiskDownload\\image1000\\000750.jpg'
p4369
(dp4370
g3
(lp4371
(lp4372
I1503
aI489
aI1550
aI535
aasg6
(lp4373
(lp4374
I1752
aI299
aI1829
aI368
aassS'D:\\BaiduNetdiskDownload\\image1000\\000488.jpg'
p4375
(dp4376
g3
(lp4377
(lp4378
I1251
aI464
aI1305
aI523
aasg6
(lp4379
(lp4380
I568
aI239
aI670
aI357
aassS'D:\\BaiduNetdiskDownload\\image1000\\000832.jpg'
p4381
(dp4382
g3
(lp4383
(lp4384
I613
aI205
aI665
aI259
aasg6
(lp4385
(lp4386
I578
aI270
aI693
aI354
aassS'D:\\BaiduNetdiskDownload\\image1000\\000670.jpg'
p4387
(dp4388
g3
(lp4389
(lp4390
I739
aI742
aI797
aI794
aasg6
(lp4391
(lp4392
I1249
aI227
aI1320
aI317
aassS'D:\\BaiduNetdiskDownload\\image1000\\000372.jpg'
p4393
(dp4394
g3
(lp4395
(lp4396
I1105
aI739
aI1170
aI793
aasg6
(lp4397
ssS'D:\\BaiduNetdiskDownload\\image1000\\000508.jpg'
p4398
(dp4399
g3
(lp4400
(lp4401
I1581
aI412
aI1623
aI458
aasg6
(lp4402
ssS'D:\\BaiduNetdiskDownload\\image1000\\000165.jpg'
p4403
(dp4404
g3
(lp4405
(lp4406
I395
aI355
aI441
aI415
aasg6
(lp4407
ssS'D:\\BaiduNetdiskDownload\\image1000\\000783.jpg'
p4408
(dp4409
g3
(lp4410
(lp4411
I1046
aI116
aI1111
aI176
aasg6
(lp4412
(lp4413
I593
aI233
aI706
aI346
aassS'D:\\BaiduNetdiskDownload\\image1000\\000434.jpg'
p4414
(dp4415
g3
(lp4416
(lp4417
I1396
aI432
aI1424
aI469
aasg6
(lp4418
(lp4419
I303
aI259
aI358
aI325
aassS'D:\\BaiduNetdiskDownload\\image1000\\000513.jpg'
p4420
(dp4421
g3
(lp4422
(lp4423
I1626
aI345
aI1666
aI386
aasg6
(lp4424
(lp4425
I226
aI162
aI313
aI256
aassS'D:\\BaiduNetdiskDownload\\image1000\\000756.jpg'
p4426
(dp4427
g3
(lp4428
(lp4429
I1451
aI602
aI1481
aI645
aasg6
(lp4430
(lp4431
I741
aI403
aI796
aI454
aassS'D:\\BaiduNetdiskDownload\\image1000\\000787.jpg'
p4432
(dp4433
g3
(lp4434
sg6
(lp4435
(lp4436
I37
aI214
aI143
aI311
aassS'D:\\BaiduNetdiskDownload\\image1000\\000049.jpg'
p4437
(dp4438
g3
(lp4439
(lp4440
I1512
aI365
aI1561
aI420
aasg6
(lp4441
(lp4442
I499
aI158
aI576
aI248
aassS'D:\\BaiduNetdiskDownload\\image1000\\000671.jpg'
p4443
(dp4444
g3
(lp4445
(lp4446
I485
aI317
aI542
aI362
aasg6
(lp4447
(lp4448
I1583
aI147
aI1711
aI283
aassS'D:\\BaiduNetdiskDownload\\image1000\\000218.jpg'
p4449
(dp4450
g3
(lp4451
(lp4452
I1310
aI147
aI1357
aI191
aasg6
(lp4453
ssS'D:\\BaiduNetdiskDownload\\image1000\\000276.jpg'
p4454
(dp4455
g3
(lp4456
(lp4457
I1157
aI381
aI1192
aI415
aasg6
(lp4458
(lp4459
I1132
aI220
aI1206
aI282
aassS'D:\\BaiduNetdiskDownload\\image1000\\000994.jpg'
p4460
(dp4461
g3
(lp4462
(lp4463
I174
aI492
aI222
aI533
aasg6
(lp4464
(lp4465
I1734
aI266
aI1824
aI343
aassS'D:\\BaiduNetdiskDownload\\image1000\\000862.jpg'
p4466
(dp4467
g3
(lp4468
(lp4469
I620
aI461
aI675
aI512
aasg6
(lp4470
ssS'D:\\BaiduNetdiskDownload\\image1000\\000946.jpg'
p4471
(dp4472
g3
(lp4473
(lp4474
I466
aI497
aI533
aI567
aasg6
(lp4475
(lp4476
I1168
aI171
aI1261
aI277
aassS'D:\\BaiduNetdiskDownload\\image1000\\000213.jpg'
p4477
(dp4478
g3
(lp4479
(lp4480
I1389
aI529
aI1429
aI564
aasg6
(lp4481
(lp4482
I547
aI270
aI621
aI362
aassS'D:\\BaiduNetdiskDownload\\image1000\\000102.jpg'
p4483
(dp4484
g3
(lp4485
(lp4486
I756
aI187
aI931
aI346
aasg6
(lp4487
ssS'D:\\BaiduNetdiskDownload\\image1000\\000280.jpg'
p4488
(dp4489
g3
(lp4490
(lp4491
I1091
aI365
aI1126
aI401
aasg6
(lp4492
(lp4493
I1132
aI213
aI1205
aI286
aassS'D:\\BaiduNetdiskDownload\\image1000\\000432.jpg'
p4494
(dp4495
g3
(lp4496
(lp4497
I1174
aI521
aI1225
aI570
aasg6
(lp4498
(lp4499
I769
aI251
aI853
aI365
aassS'D:\\BaiduNetdiskDownload\\image1000\\000325.jpg'
p4500
(dp4501
g3
(lp4502
(lp4503
I277
aI421
aI316
aI458
aasg6
(lp4504
ssS'D:\\BaiduNetdiskDownload\\image1000\\000342.jpg'
p4505
(dp4506
g3
(lp4507
sg6
(lp4508
(lp4509
I858
aI311
aI943
aI431
aassS'D:\\BaiduNetdiskDownload\\image1000\\000616.jpg'
p4510
(dp4511
g3
(lp4512
(lp4513
I1436
aI265
aI1482
aI312
aasg6
(lp4514
(lp4515
I230
aI153
aI337
aI260
aassS'D:\\BaiduNetdiskDownload\\image1000\\000932.jpg'
p4516
(dp4517
g3
(lp4518
(lp4519
I384
aI398
aI436
aI452
aasg6
(lp4520
(lp4521
I1343
aI67
aI1445
aI177
aassS'D:\\BaiduNetdiskDownload\\image1000\\000732.jpg'
p4522
(dp4523
g3
(lp4524
(lp4525
I1521
aI351
aI1565
aI403
aasg6
(lp4526
ssS'D:\\BaiduNetdiskDownload\\image1000\\000593.jpg'
p4527
(dp4528
g3
(lp4529
(lp4530
I928
aI196
aI983
aI254
aasg6
(lp4531
(lp4532
I1067
aI250
aI1157
aI345
aassS'D:\\BaiduNetdiskDownload\\image1000\\000688.jpg'
p4533
(dp4534
g3
(lp4535
(lp4536
I762
aI609
aI828
aI688
aasg6
(lp4537
(lp4538
I585
aI205
aI690
aI335
aassS'D:\\BaiduNetdiskDownload\\image1000\\000916.jpg'
p4539
(dp4540
g3
(lp4541
(lp4542
I234
aI345
aI286
aI394
aasg6
(lp4543
(lp4544
I1230
aI90
aI1322
aI193
aassS'D:\\BaiduNetdiskDownload\\image1000\\000680.jpg'
p4545
(dp4546
g3
(lp4547
(lp4548
I1333
aI515
aI1395
aI569
aasg6
(lp4549
(lp4550
I1322
aI260
aI1410
aI335
aassS'D:\\BaiduNetdiskDownload\\image1000\\000294.jpg'
p4551
(dp4552
g3
(lp4553
(lp4554
I755
aI458
aI801
aI509
aasg6
(lp4555
ssS'D:\\BaiduNetdiskDownload\\image1000\\000482.jpg'
p4556
(dp4557
g3
(lp4558
(lp4559
I1116
aI559
aI1182
aI630
aasg6
(lp4560
(lp4561
I1039
aI156
aI1154
aI297
aassS'D:\\BaiduNetdiskDownload\\image1000\\000124.jpg'
p4562
(dp4563
g3
(lp4564
sg6
(lp4565
(lp4566
I663
aI311
aI741
aI397
aassS'D:\\BaiduNetdiskDownload\\image1000\\000007.jpg'
p4567
(dp4568
g3
(lp4569
(lp4570
I410
aI599
aI465
aI653
aasg6
(lp4571
(lp4572
I1519
aI194
aI1604
aI311
aassS'D:\\BaiduNetdiskDownload\\image1000\\000075.jpg'
p4573
(dp4574
g3
(lp4575
(lp4576
I1519
aI375
aI1557
aI409
aasg6
(lp4577
ssS'D:\\BaiduNetdiskDownload\\image1000\\000262.jpg'
p4578
(dp4579
g3
(lp4580
sg6
(lp4581
(lp4582
I1443
aI233
aI1507
aI309
aassS'D:\\BaiduNetdiskDownload\\image1000\\000515.jpg'
p4583
(dp4584
g3
(lp4585
(lp4586
I839
aI705
aI887
aI757
aasg6
(lp4587
(lp4588
I780
aI260
aI850
aI343
aassS'D:\\BaiduNetdiskDownload\\image1000\\000687.jpg'
p4589
(dp4590
g3
(lp4591
(lp4592
I1415
aI500
aI1469
aI553
aasg6
(lp4593
ssS'D:\\BaiduNetdiskDownload\\image1000\\000340.jpg'
p4594
(dp4595
g3
(lp4596
(lp4597
I1355
aI510
aI1408
aI559
aasg6
(lp4598
(lp4599
I1748
aI293
aI1848
aI408
aassS'D:\\BaiduNetdiskDownload\\image1000\\000746.jpg'
p4600
(dp4601
g3
(lp4602
sg6
(lp4603
(lp4604
I1690
aI279
aI1755
aI348
aassS'D:\\BaiduNetdiskDownload\\image1000\\000728.jpg'
p4605
(dp4606
g3
(lp4607
(lp4608
I1054
aI536
aI1099
aI582
aasg6
(lp4609
(lp4610
I1225
aI352
aI1337
aI463
aassS'D:\\BaiduNetdiskDownload\\image1000\\000289.jpg'
p4611
(dp4612
g3
(lp4613
(lp4614
I1046
aI394
aI1091
aI435
aasg6
(lp4615
(lp4616
I1123
aI216
aI1199
aI300
aassS'D:\\BaiduNetdiskDownload\\image1000\\000328.jpg'
p4617
(dp4618
g3
(lp4619
(lp4620
I1392
aI544
aI1450
aI605
aasg6
(lp4621
(lp4622
I1236
aI277
aI1330
aI383
aassS'D:\\BaiduNetdiskDownload\\image1000\\000256.jpg'
p4623
(dp4624
g3
(lp4625
sg6
(lp4626
(lp4627
I1424
aI233
aI1495
aI305
aassS'D:\\BaiduNetdiskDownload\\image1000\\000711.jpg'
p4628
(dp4629
g3
(lp4630
(lp4631
I829
aI691
aI870
aI737
aasg6
(lp4632
(lp4633
I1361
aI288
aI1437
aI358
aassS'D:\\BaiduNetdiskDownload\\image1000\\000653.jpg'
p4634
(dp4635
g3
(lp4636
(lp4637
I1202
aI329
aI1280
aI400
aasg6
(lp4638
ssS'D:\\BaiduNetdiskDownload\\image1000\\000740.jpg'
p4639
(dp4640
g3
(lp4641
sg6
(lp4642
(lp4643
I609
aI213
aI718
aI305
aassS'D:\\BaiduNetdiskDownload\\image1000\\000051.jpg'
p4644
(dp4645
g3
(lp4646
sg6
(lp4647
(lp4648
I1123
aI194
aI1213
aI291
aassS'D:\\BaiduNetdiskDownload\\image1000\\000195.jpg'
p4649
(dp4650
g3
(lp4651
(lp4652
I1528
aI351
aI1564
aI391
aasg6
(lp4653
(lp4654
I346
aI270
aI421
aI337
aassS'D:\\BaiduNetdiskDownload\\image1000\\000917.jpg'
p4655
(dp4656
g3
(lp4657
(lp4658
I1032
aI547
aI1090
aI595
aasg6
(lp4659
(lp4660
I1378
aI119
aI1493
aI231
aassS'D:\\BaiduNetdiskDownload\\image1000\\000791.jpg'
p4661
(dp4662
g3
(lp4663
(lp4664
I1413
aI656
aI1465
aI710
aasg6
(lp4665
ssS'D:\\BaiduNetdiskDownload\\image1000\\000365.jpg'
p4666
(dp4667
g3
(lp4668
(lp4669
I991
aI725
aI1053
aI783
aasg6
(lp4670
(lp4671
I1271
aI138
aI1367
aI260
aassS'D:\\BaiduNetdiskDownload\\image1000\\000045.jpg'
p4672
(dp4673
g3
(lp4674
(lp4675
I1267
aI378
aI1333
aI444
aasg6
(lp4676
(lp4677
I1232
aI174
aI1341
aI308
aassS'D:\\BaiduNetdiskDownload\\image1000\\000751.jpg'
p4678
(dp4679
g3
(lp4680
(lp4681
I1420
aI613
aI1478
aI681
aasg6
(lp4682
(lp4683
I717
aI243
aI839
aI355
aassS'D:\\BaiduNetdiskDownload\\image1000\\000681.jpg'
p4684
(dp4685
g3
(lp4686
(lp4687
I1317
aI572
aI1374
aI638
aasg6
(lp4688
(lp4689
I289
aI133
aI398
aI246
aassS'D:\\BaiduNetdiskDownload\\image1000\\000621.jpg'
p4690
(dp4691
g3
(lp4692
(lp4693
I730
aI483
aI783
aI535
aasg6
(lp4694
(lp4695
I832
aI227
aI931
aI329
aassS'D:\\BaiduNetdiskDownload\\image1000\\000648.jpg'
p4696
(dp4697
g3
(lp4698
sg6
(lp4699
(lp4700
I1135
aI325
aI1250
aI435
aassS'D:\\BaiduNetdiskDownload\\image1000\\000601.jpg'
p4701
(dp4702
g3
(lp4703
(lp4704
I1647
aI506
aI1709
aI563
aasg6
(lp4705
(lp4706
I628
aI265
aI718
aI351
aassS'D:\\BaiduNetdiskDownload\\image1000\\000952.jpg'
p4707
(dp4708
g3
(lp4709
(lp4710
I732
aI345
aI783
aI405
aasg6
(lp4711
(lp4712
I1128
aI207
aI1237
aI323
aassS'D:\\BaiduNetdiskDownload\\image1000\\000934.jpg'
p4713
(dp4714
g3
(lp4715
(lp4716
I1000
aI739
aI1061
aI796
aasg6
(lp4717
(lp4718
I1282
aI125
aI1377
aI222
aassS'D:\\BaiduNetdiskDownload\\image1000\\000942.jpg'
p4719
(dp4720
g3
(lp4721
(lp4722
I589
aI236
aI641
aI280
aasg6
(lp4723
(lp4724
I1247
aI190
aI1327
aI294
aassS'D:\\BaiduNetdiskDownload\\image1000\\000560.jpg'
p4725
(dp4726
g3
(lp4727
(lp4728
I481
aI469
aI534
aI521
aasg6
(lp4729
ssS'D:\\BaiduNetdiskDownload\\image1000\\000839.jpg'
p4730
(dp4731
g3
(lp4732
(lp4733
I1070
aI751
aI1116
aI796
aasg6
(lp4734
(lp4735
I1244
aI234
aI1340
aI314
aassS'D:\\BaiduNetdiskDownload\\image1000\\000812.jpg'
p4736
(dp4737
g3
(lp4738
sg6
(lp4739
(lp4740
I523
aI248
aI628
aI335
aassS'D:\\BaiduNetdiskDownload\\image1000\\000927.jpg'
p4741
(dp4742
g3
(lp4743
(lp4744
I995
aI457
aI1099
aI555
aasg6
(lp4745
(lp4746
I1084
aI36
aI1306
aI256
aassS'D:\\BaiduNetdiskDownload\\image1000\\000422.jpg'
p4747
(dp4748
g3
(lp4749
(lp4750
I1046
aI446
aI1102
aI501
aasg6
(lp4751
(lp4752
I568
aI210
aI645
aI305
aassS'D:\\BaiduNetdiskDownload\\image1000\\000384.jpg'
p4753
(dp4754
g3
(lp4755
(lp4756
I980
aI651
aI1035
aI710
aasg6
(lp4757
(lp4758
I147
aI115
aI236
aI211
aassS'D:\\BaiduNetdiskDownload\\image1000\\000163.jpg'
p4759
(dp4760
g3
(lp4761
(lp4762
I993
aI357
aI1047
aI408
aasg6
(lp4763
ssS'D:\\BaiduNetdiskDownload\\image1000\\000892.jpg'
p4764
(dp4765
g3
(lp4766
(lp4767
I1033
aI484
aI1073
aI526
aasg6
(lp4768
(lp4769
I689
aI119
aI756
aI185
aassS'D:\\BaiduNetdiskDownload\\image1000\\000583.jpg'
p4770
(dp4771
g3
(lp4772
(lp4773
I1166
aI693
aI1213
aI736
aasg6
(lp4774
(lp4775
I357
aI119
aI444
aI213
aassS'D:\\BaiduNetdiskDownload\\image1000\\000425.jpg'
p4776
(dp4777
g3
(lp4778
(lp4779
I1319
aI368
aI1351
aI401
aasg6
(lp4780
ssS'D:\\BaiduNetdiskDownload\\image1000\\000307.jpg'
p4781
(dp4782
g3
(lp4783
(lp4784
I987
aI516
aI1035
aI569
aasg6
(lp4785
(lp4786
I831
aI331
aI919
aI431
aassS'D:\\BaiduNetdiskDownload\\image1000\\000358.jpg'
p4787
(dp4788
g3
(lp4789
(lp4790
I1728
aI498
aI1773
aI549
aasg6
(lp4791
(lp4792
I315
aI151
aI400
aI253
aassS'D:\\BaiduNetdiskDownload\\image1000\\000672.jpg'
p4793
(dp4794
g3
(lp4795
sg6
(lp4796
(lp4797
I1126
aI311
aI1225
aI400
aassS'D:\\BaiduNetdiskDownload\\image1000\\000385.jpg'
p4798
(dp4799
g3
(lp4800
(lp4801
I710
aI220
aI752
aI277
aasg6
(lp4802
ssS'D:\\BaiduNetdiskDownload\\image1000\\000498.jpg'
p4803
(dp4804
g3
(lp4805
sg6
(lp4806
(lp4807
I559
aI243
aI673
aI351
aassS'D:\\BaiduNetdiskDownload\\image1000\\000626.jpg'
p4808
(dp4809
g3
(lp4810
(lp4811
I376
aI736
aI421
aI785
aasg6
(lp4812
(lp4813
I1313
aI256
aI1378
aI335
aassS'D:\\BaiduNetdiskDownload\\image1000\\000992.jpg'
p4814
(dp4815
g3
(lp4816
(lp4817
I1493
aI408
aI1544
aI466
aasg6
(lp4818
ssS'D:\\BaiduNetdiskDownload\\image1000\\000085.jpg'
p4819
(dp4820
g3
(lp4821
(lp4822
I1267
aI380
aI1312
aI424
aasg6
(lp4823
ssS'D:\\BaiduNetdiskDownload\\image1000\\000503.jpg'
p4824
(dp4825
g3
(lp4826
(lp4827
I1050
aI332
aI1116
aI405
aasg6
(lp4828
(lp4829
I1029
aI142
aI1149
aI282
aassS'D:\\BaiduNetdiskDownload\\image1000\\000407.jpg'
p4830
(dp4831
g3
(lp4832
(lp4833
I1327
aI457
aI1364
aI498
aasg6
(lp4834
(lp4835
I348
aI251
aI450
aI343
aassS'D:\\BaiduNetdiskDownload\\image1000\\000388.jpg'
p4836
(dp4837
g3
(lp4838
sg6
(lp4839
(lp4840
I751
aI148
aI832
aI237
aassS'D:\\BaiduNetdiskDownload\\image1000\\000064.jpg'
p4841
(dp4842
g3
(lp4843
(lp4844
I1199
aI299
aI1236
aI343
aasg6
(lp4845
(lp4846
I1160
aI233
aI1249
aI289
aassS'D:\\BaiduNetdiskDownload\\image1000\\000922.jpg'
p4847
(dp4848
g3
(lp4849
(lp4850
I208
aI446
aI278
aI512
aasg6
(lp4851
ssS'D:\\BaiduNetdiskDownload\\image1000\\000960.jpg'
p4852
(dp4853
g3
(lp4854
(lp4855
I1254
aI423
aI1319
aI490
aasg6
(lp4856
(lp4857
I1137
aI141
aI1292
aI280
aassS'D:\\BaiduNetdiskDownload\\image1000\\000310.jpg'
p4858
(dp4859
g3
(lp4860
(lp4861
I1039
aI512
aI1090
aI567
aasg6
(lp4862
(lp4863
I829
aI323
aI921
aI421
aassS'D:\\BaiduNetdiskDownload\\image1000\\000113.jpg'
p4864
(dp4865
g3
(lp4866
(lp4867
I881
aI394
aI922
aI431
aasg6
(lp4868
(lp4869
I573
aI319
aI651
aI408
aassS'D:\\BaiduNetdiskDownload\\image1000\\000171.jpg'
p4870
(dp4871
g3
(lp4872
(lp4873
I1191
aI532
aI1230
aI573
aasg6
(lp4874
(lp4875
I447
aI266
aI530
aI342
aassS'D:\\BaiduNetdiskDownload\\image1000\\000362.jpg'
p4876
(dp4877
g3
(lp4878
(lp4879
I1521
aI388
aI1575
aI437
aasg6
(lp4880
(lp4881
I466
aI174
aI559
aI253
aassS'D:\\BaiduNetdiskDownload\\image1000\\000878.jpg'
p4882
(dp4883
g3
(lp4884
sg6
(lp4885
(lp4886
I1095
aI210
aI1194
aI314
aassS'D:\\BaiduNetdiskDownload\\image1000\\000954.jpg'
p4887
(dp4888
g3
(lp4889
(lp4890
I846
aI380
aI910
aI444
aasg6
(lp4891
(lp4892
I1168
aI194
aI1256
aI300
aassS'D:\\BaiduNetdiskDownload\\image1000\\000258.jpg'
p4893
(dp4894
g3
(lp4895
(lp4896
I659
aI504
aI694
aI546
aasg6
(lp4897
(lp4898
I1135
aI219
aI1198
aI305
aassS'D:\\BaiduNetdiskDownload\\image1000\\000738.jpg'
p4899
(dp4900
g3
(lp4901
(lp4902
I1448
aI254
aI1490
aI302
aasg6
(lp4903
(lp4904
I489
aI141
aI583
aI234
aassS'D:\\BaiduNetdiskDownload\\image1000\\000450.jpg'
p4905
(dp4906
g3
(lp4907
(lp4908
I1112
aI340
aI1160
aI391
aasg6
(lp4909
(lp4910
I461
aI208
aI554
aI291
aassS'D:\\BaiduNetdiskDownload\\image1000\\000902.jpg'
p4911
(dp4912
g3
(lp4913
sg6
(lp4914
(lp4915
I1561
aI145
aI1651
aI236
aassS'D:\\BaiduNetdiskDownload\\image1000\\000825.jpg'
p4916
(dp4917
g3
(lp4918
(lp4919
I424
aI176
aI544
aI274
aasg6
(lp4920
(lp4921
I640
aI242
aI731
aI320
aassS'D:\\BaiduNetdiskDownload\\image1000\\000596.jpg'
p4922
(dp4923
g3
(lp4924
(lp4925
I1056
aI237
aI1109
aI294
aasg6
(lp4926
(lp4927
I998
aI270
aI1118
aI380
aassS'D:\\BaiduNetdiskDownload\\image1000\\000849.jpg'
p4928
(dp4929
g3
(lp4930
sg6
(lp4931
(lp4932
I1471
aI199
aI1588
aI308
aassS'D:\\BaiduNetdiskDownload\\image1000\\000073.jpg'
p4933
(dp4934
g3
(lp4935
sg6
(lp4936
(lp4937
I1164
aI148
aI1249
aI245
aassS'D:\\BaiduNetdiskDownload\\image1000\\000442.jpg'
p4938
(dp4939
g3
(lp4940
sg6
(lp4941
(lp4942
I469
aI223
aI537
aI294
aassS'D:\\BaiduNetdiskDownload\\image1000\\000173.jpg'
p4943
(dp4944
g3
(lp4945
(lp4946
I741
aI260
aI789
aI314
aasg6
(lp4947
(lp4948
I586
aI144
aI673
aI236
aassS'D:\\BaiduNetdiskDownload\\image1000\\000706.jpg'
p4949
(dp4950
g3
(lp4951
(lp4952
I616
aI371
aI679
aI426
aasg6
(lp4953
(lp4954
I634
aI302
aI727
aI398
aassS'D:\\BaiduNetdiskDownload\\image1000\\000578.jpg'
p4955
(dp4956
g3
(lp4957
sg6
(lp4958
(lp4959
I1296
aI286
aI1395
aI398
aassS'D:\\BaiduNetdiskDownload\\image1000\\000277.jpg'
p4960
(dp4961
g3
(lp4962
(lp4963
I233
aI323
aI271
aI377
aasg6
(lp4964
(lp4965
I1370
aI147
aI1468
aI256
aassS'D:\\BaiduNetdiskDownload\\image1000\\000998.jpg'
p4966
(dp4967
g3
(lp4968
(lp4969
I410
aI839
aI468
aI880
aasg6
(lp4970
(lp4971
I597
aI266
aI686
aI365
aassS'D:\\BaiduNetdiskDownload\\image1000\\000947.jpg'
p4972
(dp4973
g3
(lp4974
(lp4975
I682
aI316
aI746
aI377
aasg6
(lp4976
(lp4977
I1057
aI159
aI1137
aI260
aassS'D:\\BaiduNetdiskDownload\\image1000\\000610.jpg'
p4978
(dp4979
g3
(lp4980
(lp4981
I466
aI512
aI524
aI563
aasg6
(lp4982
(lp4983
I489
aI316
aI568
aI406
aassS'D:\\BaiduNetdiskDownload\\image1000\\000666.jpg'
p4984
(dp4985
g3
(lp4986
(lp4987
I634
aI225
aI687
aI288
aasg6
(lp4988
ssS'D:\\BaiduNetdiskDownload\\image1000\\000945.jpg'
p4989
(dp4990
g3
(lp4991
(lp4992
I827
aI161
aI881
aI213
aasg6
(lp4993
(lp4994
I722
aI254
aI829
aI358
aassS'D:\\BaiduNetdiskDownload\\image1000\\000466.jpg'
p4995
(dp4996
g3
(lp4997
(lp4998
I1460
aI737
aI1512
aI797
aasg6
(lp4999
(lp5000
I569
aI162
aI637
aI240
aassS'D:\\BaiduNetdiskDownload\\image1000\\000324.jpg'
p5001
(dp5002
g3
(lp5003
sg6
(lp5004
(lp5005
I530
aI122
aI602
aI193
aassS'D:\\BaiduNetdiskDownload\\image1000\\000150.jpg'
p5006
(dp5007
g3
(lp5008
(lp5009
I1488
aI424
aI1784
aI704
aasg6
(lp5010
ssS'D:\\BaiduNetdiskDownload\\image1000\\000433.jpg'
p5011
(dp5012
g3
(lp5013
sg6
(lp5014
(lp5015
I1188
aI170
aI1288
aI285
aassS'D:\\BaiduNetdiskDownload\\image1000\\000757.jpg'
p5016
(dp5017
g3
(lp5018
(lp5019
I635
aI170
aI707
aI242
aasg6
(lp5020
(lp5021
I578
aI210
aI706
aI331
aassS'D:\\BaiduNetdiskDownload\\image1000\\000553.jpg'
p5022
(dp5023
g3
(lp5024
(lp5025
I724
aI179
aI779
aI237
aasg6
(lp5026
(lp5027
I728
aI227
aI828
aI340
aassS'D:\\BaiduNetdiskDownload\\image1000\\000533.jpg'
p5028
(dp5029
g3
(lp5030
(lp5031
I407
aI593
aI454
aI638
aasg6
(lp5032
ssS'D:\\BaiduNetdiskDownload\\image1000\\000152.jpg'
p5033
(dp5034
g3
(lp5035
(lp5036
I1509
aI403
aI1554
aI438
aasg6
(lp5037
(lp5038
I156
aI270
aI220
aI340
aassS'D:\\BaiduNetdiskDownload\\image1000\\000708.jpg'
p5039
(dp5040
g3
(lp5041
(lp5042
I663
aI717
aI727
aI782
aasg6
(lp5043
(lp5044
I1666
aI202
aI727
aI782
aassS'D:\\BaiduNetdiskDownload\\image1000\\000336.jpg'
p5045
(dp5046
g3
(lp5047
(lp5048
I945
aI912
aI994
aI972
aasg6
(lp5049
(lp5050
I414
aI158
aI497
aI245
aassS'D:\\BaiduNetdiskDownload\\image1000\\000355.jpg'
p5051
(dp5052
g3
(lp5053
(lp5054
I865
aI615
aI912
aI668
aasg6
(lp5055
(lp5056
I855
aI320
aI952
aI418
aassS'D:\\BaiduNetdiskDownload\\image1000\\000240.jpg'
p5057
(dp5058
g3
(lp5059
(lp5060
I670
aI234
aI711
aI288
aasg6
(lp5061
(lp5062
I1648
aI98
aI1761
aI207
aassS'D:\\BaiduNetdiskDownload\\image1000\\000605.jpg'
p5063
(dp5064
g3
(lp5065
(lp5066
I1372
aI417
aI1426
aI472
aasg6
(lp5067
(lp5068
I1604
aI216
aI1730
aI329
aassS'D:\\BaiduNetdiskDownload\\image1000\\000295.jpg'
p5069
(dp5070
g3
(lp5071
(lp5072
I434
aI719
aI481
aI774
aasg6
(lp5073
(lp5074
I1101
aI263
aI1205
aI403
aassS'D:\\BaiduNetdiskDownload\\image1000\\000632.jpg'
p5075
(dp5076
g3
(lp5077
(lp5078
I606
aI564
aI655
aI619
aasg6
(lp5079
(lp5080
I768
aI291
aI852
aI368
aassS'D:\\BaiduNetdiskDownload\\image1000\\000375.jpg'
p5081
(dp5082
g3
(lp5083
(lp5084
I1104
aI693
aI1153
aI740
aasg6
(lp5085
ssS'D:\\BaiduNetdiskDownload\\image1000\\000069.jpg'
p5086
(dp5087
g3
(lp5088
(lp5089
I1399
aI538
aI1458
aI599
aasg6
(lp5090
(lp5091
I479
aI154
aI565
aI248
aassS'D:\\BaiduNetdiskDownload\\image1000\\000137.jpg'
p5092
(dp5093
g3
(lp5094
(lp5095
I1149
aI675
aI1205
aI734
aasg6
(lp5096
ssS'D:\\BaiduNetdiskDownload\\image1000\\000585.jpg'
p5097
(dp5098
g3
(lp5099
(lp5100
I495
aI289
aI533
aI332
aasg6
(lp5101
(lp5102
I1308
aI204
aI1375
aI291
aassS'D:\\BaiduNetdiskDownload\\image1000\\000544.jpg'
p5103
(dp5104
g3
(lp5105
(lp5106
I978
aI391
aI1038
aI443
aasg6
(lp5107
(lp5108
I630
aI250
aI707
aI332
aassS'D:\\BaiduNetdiskDownload\\image1000\\000123.jpg'
p5109
(dp5110
g3
(lp5111
(lp5112
I1395
aI434
aI1467
aI513
aasg6
(lp5113
(lp5114
I1026
aI131
aI1164
aI259
aassS'D:\\BaiduNetdiskDownload\\image1000\\000478.jpg'
p5115
(dp5116
g3
(lp5117
sg6
(lp5118
(lp5119
I707
aI299
aI794
aI394
aassS'D:\\BaiduNetdiskDownload\\image1000\\000455.jpg'
p5120
(dp5121
g3
(lp5122
(lp5123
I759
aI667
aI822
aI730
aasg6
(lp5124
ssS'D:\\BaiduNetdiskDownload\\image1000\\000645.jpg'
p5125
(dp5126
g3
(lp5127
(lp5128
I964
aI523
aI1025
aI592
aasg6
(lp5129
(lp5130
I1036
aI286
aI1157
aI426
aassS'D:\\BaiduNetdiskDownload\\image1000\\000416.jpg'
p5131
(dp5132
g3
(lp5133
(lp5134
I201
aI509
aI241
aI555
aasg6
(lp5135
ssS'D:\\BaiduNetdiskDownload\\image1000\\000284.jpg'
p5136
(dp5137
g3
(lp5138
(lp5139
I205
aI300
aI246
aI342
aasg6
(lp5140
(lp5141
I1378
aI145
aI1475
aI248
aassS'D:\\BaiduNetdiskDownload\\image1000\\000841.jpg'
p5142
(dp5143
g3
(lp5144
(lp5145
I1298
aI750
aI1368
aI817
aasg6
(lp5146
(lp5147
I1092
aI262
aI1212
aI372
aassS'D:\\BaiduNetdiskDownload\\image1000\\000109.jpg'
p5148
(dp5149
g3
(lp5150
(lp5151
I1521
aI369
aI1559
aI405
aasg6
(lp5152
ssS'D:\\BaiduNetdiskDownload\\image1000\\000136.jpg'
p5153
(dp5154
g3
(lp5155
sg6
(lp5156
(lp5157
I544
aI225
aI610
aI320
aassS'D:\\BaiduNetdiskDownload\\image1000\\000318.jpg'
p5158
(dp5159
g3
(lp5160
sg6
(lp5161
(lp5162
I1105
aI253
aI1229
aI383
aassS'D:\\BaiduNetdiskDownload\\image1000\\000884.jpg'
p5163
(dp5164
g3
(lp5165
(lp5166
I957
aI349
aI1002
aI388
aasg6
(lp5167
ssS'D:\\BaiduNetdiskDownload\\image1000\\000441.jpg'
p5168
(dp5169
g3
(lp5170
(lp5171
I1443
aI512
aI1483
aI556
aasg6
(lp5172
(lp5173
I436
aI233
aI507
aI312
aassS'D:\\BaiduNetdiskDownload\\image1000\\000352.jpg'
p5174
(dp5175
g3
(lp5176
sg6
(lp5177
(lp5178
I441
aI217
aI554
aI329
aassS'D:\\BaiduNetdiskDownload\\image1000\\000505.jpg'
p5179
(dp5180
g3
(lp5181
sg6
(lp5182
(lp5183
I1076
aI177
aI1150
aI270
aassS'D:\\BaiduNetdiskDownload\\image1000\\000588.jpg'
p5184
(dp5185
g3
(lp5186
(lp5187
I782
aI717
aI832
aI776
aasg6
(lp5188
(lp5189
I1585
aI107
aI1697
aI211
aassS'D:\\BaiduNetdiskDownload\\image1000\\000899.jpg'
p5190
(dp5191
g3
(lp5192
(lp5193
I630
aI266
aI683
aI322
aasg6
(lp5194
ssS'D:\\BaiduNetdiskDownload\\image1000\\000956.jpg'
p5195
(dp5196
g3
(lp5197
sg6
(lp5198
(lp5199
I1281
aI138
aI1374
aI222
aassS'D:\\BaiduNetdiskDownload\\image1000\\000540.jpg'
p5200
(dp5201
g3
(lp5202
(lp5203
I327
aI630
aI375
aI684
aasg6
(lp5204
ssS'D:\\BaiduNetdiskDownload\\image1000\\000890.jpg'
p5205
(dp5206
g3
(lp5207
(lp5208
I818
aI627
aI872
aI678
aasg6
(lp5209
(lp5210
I1284
aI227
aI1374
aI314
aassS'D:\\BaiduNetdiskDownload\\image1000\\000489.jpg'
p5211
(dp5212
g3
(lp5213
(lp5214
I1278
aI395
aI1339
aI449
aasg6
(lp5215
(lp5216
I562
aI245
aI663
aI348
aassS'D:\\BaiduNetdiskDownload\\image1000\\000021.jpg'
p5217
(dp5218
g3
(lp5219
(lp5220
I1031
aI529
aI1095
aI584
aasg6
(lp5221
(lp5222
I1144
aI242
aI1232
aI355
aassS'D:\\BaiduNetdiskDownload\\image1000\\000141.jpg'
p5223
(dp5224
g3
(lp5225
sg6
(lp5226
(lp5227
I680
aI314
aI758
aI418
aassS'D:\\BaiduNetdiskDownload\\image1000\\000874.jpg'
p5228
(dp5229
g3
(lp5230
(lp5231
I1014
aI363
aI1074
aI424
aasg6
(lp5232
(lp5233
I872
aI796
aI1133
aI1023
aassS'D:\\BaiduNetdiskDownload\\image1000\\000771.jpg'
p5234
(dp5235
g3
(lp5236
(lp5237
I1022
aI259
aI1083
aI314
aasg6
(lp5238
(lp5239
I1206
aI162
aI1303
aI256
aassS'D:\\BaiduNetdiskDownload\\image1000\\000246.jpg'
p5240
(dp5241
g3
(lp5242
(lp5243
I291
aI572
aI326
aI613
aasg6
(lp5244
(lp5245
I1433
aI217
aI1507
aI296
aassS'D:\\BaiduNetdiskDownload\\image1000\\000225.jpg'
p5246
(dp5247
g3
(lp5248
(lp5249
I842
aI381
aI893
aI434
aasg6
(lp5250
ssS'D:\\BaiduNetdiskDownload\\image1000\\000253.jpg'
p5251
(dp5252
g3
(lp5253
(lp5254
I718
aI142
aI775
aI194
aasg6
(lp5255
(lp5256
I721
aI188
aI803
aI297
aassS'D:\\BaiduNetdiskDownload\\image1000\\000155.jpg'
p5257
(dp5258
g3
(lp5259
(lp5260
I1492
aI624
aI1706
aI848
aasg6
(lp5261
ssS'D:\\BaiduNetdiskDownload\\image1000\\000977.jpg'
p5262
(dp5263
g3
(lp5264
(lp5265
I1354
aI639
aI1403
aI688
aasg6
(lp5266
(lp5267
I1282
aI148
aI1372
aI220
aassS'D:\\BaiduNetdiskDownload\\image1000\\000675.jpg'
p5268
(dp5269
g3
(lp5270
(lp5271
I1531
aI381
aI1579
aI437
aasg6
(lp5272
ssS'D:\\BaiduNetdiskDownload\\image1000\\000634.jpg'
p5273
(dp5274
g3
(lp5275
(lp5276
I566
aI547
aI610
aI598
aasg6
(lp5277
(lp5278
I744
aI285
aI828
aI363
aassS'D:\\BaiduNetdiskDownload\\image1000\\000131.jpg'
p5279
(dp5280
g3
(lp5281
(lp5282
I1114
aI670
aI1374
aI912
aasg6
(lp5283
ssS'D:\\BaiduNetdiskDownload\\image1000\\000003.jpg'
p5284
(dp5285
g3
(lp5286
(lp5287
I506
aI398
aI555
aI440
aasg6
(lp5288
(lp5289
I1559
aI92
aI1645
aI191
aassS'D:\\BaiduNetdiskDownload\\image1000\\000512.jpg'
p5290
(dp5291
g3
(lp5292
(lp5293
I1133
aI220
aI1192
aI288
aasg6
(lp5294
(lp5295
I573
aI231
aI668
aI335
aassS'D:\\BaiduNetdiskDownload\\image1000\\000845.jpg'
p5296
(dp5297
g3
(lp5298
sg6
(lp5299
(lp5300
I1364
aI274
aI1472
aI366
aassS'D:\\BaiduNetdiskDownload\\image1000\\000885.jpg'
p5301
(dp5302
g3
(lp5303
(lp5304
I1645
aI408
aI1687
aI457
aasg6
(lp5305
ssS'D:\\BaiduNetdiskDownload\\image1000\\000459.jpg'
p5306
(dp5307
g3
(lp5308
(lp5309
I1502
aI679
aI1554
aI725
aasg6
(lp5310
(lp5311
I475
aI200
aI558
aI288
aassS'D:\\BaiduNetdiskDownload\\image1000\\000410.jpg'
p5312
(dp5313
g3
(lp5314
(lp5315
I782
aI377
aI825
aI421
aasg6
(lp5316
(lp5317
I1761
aI256
aI1876
aI351
aassS'D:\\BaiduNetdiskDownload\\image1000\\000993.jpg'
p5318
(dp5319
g3
(lp5320
(lp5321
I421
aI99
aI746
aI403
aasg6
(lp5322
(lp5323
I386
aI289
aI994
aI859
aassS'D:\\BaiduNetdiskDownload\\image1000\\000227.jpg'
p5324
(dp5325
g3
(lp5326
(lp5327
I1315
aI687
aI1365
aI736
aasg6
(lp5328
ssS'D:\\BaiduNetdiskDownload\\image1000\\000084.jpg'
p5329
(dp5330
g3
(lp5331
(lp5332
I1260
aI405
aI1303
aI446
aasg6
(lp5333
ssS'D:\\BaiduNetdiskDownload\\image1000\\000550.jpg'
p5334
(dp5335
g3
(lp5336
(lp5337
I623
aI101
aI692
aI164
aasg6
(lp5338
(lp5339
I685
aI204
aI783
aI311
aassS'D:\\BaiduNetdiskDownload\\image1000\\000974.jpg'
p5340
(dp5341
g3
(lp5342
(lp5343
I459
aI305
aI521
aI358
aasg6
(lp5344
ssS'D:\\BaiduNetdiskDownload\\image1000\\000364.jpg'
p5345
(dp5346
g3
(lp5347
(lp5348
I1572
aI461
aI1614
aI501
aasg6
(lp5349
ssS'D:\\BaiduNetdiskDownload\\image1000\\000564.jpg'
p5350
(dp5351
g3
(lp5352
sg6
(lp5353
(lp5354
I1367
aI259
aI1430
aI326
aassS'D:\\BaiduNetdiskDownload\\image1000\\000110.jpg'
p5355
(dp5356
g3
(lp5357
(lp5358
I1399
aI320
aI1450
aI372
aasg6
(lp5359
(lp5360
I396
aI188
aI493
aI286
aassS'D:\\BaiduNetdiskDownload\\image1000\\000435.jpg'
p5361
(dp5362
g3
(lp5363
(lp5364
I1468
aI470
aI1512
aI507
aasg6
(lp5365
(lp5366
I348
aI256
aI410
aI320
aassS'D:\\BaiduNetdiskDownload\\image1000\\000991.jpg'
p5367
(dp5368
g3
(lp5369
(lp5370
I163
aI469
aI205
aI507
aasg6
(lp5371
ssS'D:\\BaiduNetdiskDownload\\image1000\\000906.jpg'
p5372
(dp5373
g3
(lp5374
sg6
(lp5375
(lp5376
I1212
aI174
aI1308
aI266
aassS'D:\\BaiduNetdiskDownload\\image1000\\000206.jpg'
p5377
(dp5378
g3
(lp5379
sg6
(lp5380
(lp5381
I1257
aI190
aI1351
aI291
aassS'D:\\BaiduNetdiskDownload\\image1000\\000009.jpg'
p5382
(dp5383
g3
(lp5384
(lp5385
I1119
aI96
aI1226
aI200
aasg6
(lp5386
(lp5387
I888
aI50
aI1081
aI286
aassS'D:\\BaiduNetdiskDownload\\image1000\\000995.jpg'
p5388
(dp5389
g3
(lp5390
(lp5391
I845
aI36
aI1174
aI303
aasg6
(lp5392
ssS'D:\\BaiduNetdiskDownload\\image1000\\000104.jpg'
p5393
(dp5394
g3
(lp5395
sg6
(lp5396
(lp5397
I1277
aI239
aI1354
aI329
aassS'D:\\BaiduNetdiskDownload\\image1000\\000158.jpg'
p5398
(dp5399
g3
(lp5400
(lp5401
I1610
aI400
aI1656
aI449
aasg6
(lp5402
(lp5403
I106
aI274
aI188
aI375
aassS'D:\\BaiduNetdiskDownload\\image1000\\000278.jpg'
p5404
(dp5405
g3
(lp5406
(lp5407
I194
aI616
aI236
aI667
aasg6
(lp5408
(lp5409
I1301
aI231
aI1374
aI314
aassS'D:\\BaiduNetdiskDownload\\image1000\\000265.jpg'
p5410
(dp5411
g3
(lp5412
(lp5413
I672
aI530
aI714
aI578
aasg6
(lp5414
(lp5415
I1133
aI228
aI1197
aI302
aassS'D:\\BaiduNetdiskDownload\\image1000\\000125.jpg'
p5416
(dp5417
g3
(lp5418
(lp5419
I1199
aI587
aI1461
aI825
aasg6
(lp5420
ssS'D:\\BaiduNetdiskDownload\\image1000\\000164.jpg'
p5421
(dp5422
g3
(lp5423
(lp5424
I766
aI96
aI841
aI15
aasg6
(lp5425
(lp5426
I544
aI463
aI696
aI635
aassS'D:\\BaiduNetdiskDownload\\image1000\\000518.jpg'
p5427
(dp5428
g3
(lp5429
(lp5430
I630
aI648
aI685
aI711
aasg6
(lp5431
(lp5432
I738
aI253
aI820
aI339
aassS'D:\\BaiduNetdiskDownload\\image1000\\000447.jpg'
p5433
(dp5434
g3
(lp5435
(lp5436
I530
aI859
aI614
aI928
aasg6
(lp5437
(lp5438
I1403
aI228
aI1505
aI339
aassS'D:\\BaiduNetdiskDownload\\image1000\\000881.jpg'
p5439
(dp5440
g3
(lp5441
sg6
(lp5442
(lp5443
I1026
aI176
aI1130
aI283
aassS'D:\\BaiduNetdiskDownload\\image1000\\000341.jpg'
p5444
(dp5445
g3
(lp5446
(lp5447
I1296
aI719
aI1339
aI767
aasg6
(lp5448
(lp5449
I596
aI119
aI663
aI200
aassS'D:\\BaiduNetdiskDownload\\image1000\\000747.jpg'
p5450
(dp5451
g3
(lp5452
(lp5453
I1573
aI329
aI1609
aI363
aasg6
(lp5454
(lp5455
I1692
aI285
aI1761
aI349
aassS'D:\\BaiduNetdiskDownload\\image1000\\000658.jpg'
p5456
(dp5457
g3
(lp5458
(lp5459
I1692
aI601
aI1761
aI667
aasg6
(lp5460
(lp5461
I884
aI9
aI1029
aI142
aassS'D:\\BaiduNetdiskDownload\\image1000\\000915.jpg'
p5462
(dp5463
g3
(lp5464
(lp5465
I1118
aI317
aI1184
aI383
aasg6
(lp5466
(lp5467
I1122
aI311
aI1272
aI438
aassS'D:\\BaiduNetdiskDownload\\image1000\\000709.jpg'
p5468
(dp5469
g3
(lp5470
(lp5471
I1007
aI389
aI1057
aI452
aasg6
(lp5472
(lp5473
I1271
aI219
aI1385
aI323
aassS'D:\\BaiduNetdiskDownload\\image1000\\000469.jpg'
p5474
(dp5475
g3
(lp5476
(lp5477
I1490
aI691
aI1543
aI737
aasg6
(lp5478
(lp5479
I592
aI161
aI670
aI257
aassS'D:\\BaiduNetdiskDownload\\image1000\\000230.jpg'
p5480
(dp5481
g3
(lp5482
sg6
(lp5483
(lp5484
I1784
aI44
aI1877
aI168
aassS'D:\\BaiduNetdiskDownload\\image1000\\000268.jpg'
p5485
(dp5486
g3
(lp5487
(lp5488
I624
aI411
aI665
aI452
aasg6
(lp5489
(lp5490
I1122
aI214
aI1208
aI287
aassS'D:\\BaiduNetdiskDownload\\image1000\\000928.jpg'
p5491
(dp5492
g3
(lp5493
(lp5494
I1099
aI294
aI1195
aI386
aasg6
(lp5495
(lp5496
I1056
aI306
aI1265
aI552
aassS'D:\\BaiduNetdiskDownload\\image1000\\000603.jpg'
p5497
(dp5498
g3
(lp5499
(lp5500
I1133
aI319
aI1175
aI371
aasg6
(lp5501
(lp5502
I1496
aI280
aI1626
aI391
aassS'D:\\BaiduNetdiskDownload\\image1000\\000379.jpg'
p5503
(dp5504
g3
(lp5505
(lp5506
I1476
aI420
aI1526
aI461
aasg6
(lp5507
(lp5508
I320
aI294
aI399
aI371
aassS'D:\\BaiduNetdiskDownload\\image1000\\000556.jpg'
p5509
(dp5510
g3
(lp5511
(lp5512
I371
aI690
aI424
aI754
aasg6
(lp5513
(lp5514
I752
aI270
aI838
aI368
aassS'D:\\BaiduNetdiskDownload\\image1000\\000103.jpg'
p5515
(dp5516
g3
(lp5517
sg6
(lp5518
(lp5519
I410
aI188
aI500
aI286
aassS'D:\\BaiduNetdiskDownload\\image1000\\000420.jpg'
p5520
(dp5521
g3
(lp5522
(lp5523
I1399
aI553
aI1462
aI610
aasg6
(lp5524
(lp5525
I1069
aI204
aI1189
aI331
aassS'D:\\BaiduNetdiskDownload\\image1000\\000722.jpg'
p5526
(dp5527
g3
(lp5528
(lp5529
I1313
aI569
aI1364
aI618
aasg6
(lp5530
(lp5531
I1222
aI265
aI1306
aI354
aassS'D:\\BaiduNetdiskDownload\\image1000\\000429.jpg'
p5532
(dp5533
g3
(lp5534
(lp5535
I1194
aI487
aI1243
aI527
aasg6
(lp5536
(lp5537
I734
aI263
aI813
aI358
aassS'D:\\BaiduNetdiskDownload\\image1000\\000487.jpg'
p5538
(dp5539
g3
(lp5540
sg6
(lp5541
(lp5542
I974
aI294
aI1078
aI434
aassS'D:\\BaiduNetdiskDownload\\image1000\\000215.jpg'
p5543
(dp5544
g3
(lp5545
(lp5546
I562
aI472
aI517
aI529
aasg6
(lp5547
(lp5548
I466
aI230
aI547
aI314
aassS'D:\\BaiduNetdiskDownload\\image1000\\000789.jpg'
p5549
(dp5550
g3
(lp5551
(lp5552
I893
aI713
aI956
aI770
aasg6
(lp5553
(lp5554
I1330
aI133
aI1422
aI219
aassS'D:\\BaiduNetdiskDownload\\image1000\\000097.jpg'
p5555
(dp5556
g3
(lp5557
(lp5558
I451
aI237
aI497
aI291
aasg6
(lp5559
(lp5560
I409
aI317
aI475
aI414
aassS'D:\\BaiduNetdiskDownload\\image1000\\000034.jpg'
p5561
(dp5562
g3
(lp5563
(lp5564
I1474
aI627
aI1530
aI678
aasg6
(lp5565
ssS'D:\\BaiduNetdiskDownload\\image1000\\000201.jpg'
p5566
(dp5567
g3
(lp5568
(lp5569
I565
aI389
aI606
aI437
aasg6
(lp5570
ssS'D:\\BaiduNetdiskDownload\\image1000\\000381.jpg'
p5571
(dp5572
g3
(lp5573
(lp5574
I1152
aI687
aI1205
aI744
aasg6
(lp5575
(lp5576
I783
aI136
aI865
aI222
aassS'D:\\BaiduNetdiskDownload\\image1000\\000263.jpg'
p5577
(dp5578
g3
(lp5579
(lp5580
I1308
aI576
aI1348
aI630
aasg6
(lp5581
(lp5582
I692
aI240
aI769
aI319
aassS'D:\\BaiduNetdiskDownload\\image1000\\000281.jpg'
p5583
(dp5584
g3
(lp5585
(lp5586
I402
aI446
aI443
aI478
aasg6
(lp5587
(lp5588
I128
aI243
aI222
aI329
aassS'D:\\BaiduNetdiskDownload\\image1000\\000717.jpg'
p5589
(dp5590
g3
(lp5591
(lp5592
I803
aI742
aI850
aI780
aasg6
(lp5593
ssS'D:\\BaiduNetdiskDownload\\image1000\\000642.jpg'
p5594
(dp5595
g3
(lp5596
(lp5597
I962
aI253
aI1026
aI306
aasg6
(lp5598
(lp5599
I953
aI293
aI1063
aI411
aassS'D:\\BaiduNetdiskDownload\\image1000\\000823.jpg'
p5600
(dp5601
g3
(lp5602
(lp5603
I1509
aI524
aI1559
aI572
aasg6
(lp5604
(lp5605
I568
aI237
aI649
aI314
aassS'D:\\BaiduNetdiskDownload\\image1000\\000821.jpg'
p5606
(dp5607
g3
(lp5608
(lp5609
I1637
aI503
aI1686
aI556
aasg6
(lp5610
ssS'D:\\BaiduNetdiskDownload\\image1000\\000573.jpg'
p5611
(dp5612
g3
(lp5613
(lp5614
I949
aI793
aI1004
aI840
aasg6
(lp5615
(lp5616
I1377
aI142
aI1457
aI225
aass.