(dp0
S'D:\\project\\web_crawler\\test\\pic_000000000_0000000037.jpg'
p1
(dp2
S'1'
p3
(lp4
sS'2'
p5
(lp6
(lp7
I294
aI334
aI488
aI458
aa(lp8
I294
aI334
aI488
aI458
aassS'D:\\project\\web_crawler\\test\\pic_000000000_0000000036.jpg'
p9
(dp10
g3
(lp11
(lp12
I287
aI168
aI600
aI301
aa(lp13
I386
aI235
aI612
aI342
aasg5
(lp14
ss.